---
triple:          'arm64-apple-darwin'
binary-path:     main
relocations:
  - { offsetInCU: 0x6B25, offset: 0x6B25, size: 0x8, addend: 0x0, symName: __ZNSt3__1neB8ue170006IPcEEbRKNS_11__wrap_iterIT_EES6_, symObjAddr: 0x1190, symBinAddr: 0x1000043A8, symSize: 0x34 }
  - { offsetInCU: 0x6B68, offset: 0x6B68, size: 0x8, addend: 0x0, symName: __ZNSt3__1eqB8ue170006IcNS_11char_traitsIcEENS_9allocatorIcEEEEbRKNS_12basic_stringIT_T0_T1_EEPKS6_, symObjAddr: 0x1220, symBinAddr: 0x100004438, symSize: 0xAC }
  - { offsetInCU: 0x6BCF, offset: 0x6BCF, size: 0x8, addend: 0x0, symName: __ZNSt3__1neB8ue170006IPNS_6vectorI7Vector2NS_9allocatorIS2_EEEEEEbRKNS_11__wrap_iterIT_EESB_, symObjAddr: 0x20EC, symBinAddr: 0x100005304, symSize: 0x34 }
  - { offsetInCU: 0x6C12, offset: 0x6C12, size: 0x8, addend: 0x0, symName: __ZNSt3__1plB8ue170006IcNS_11char_traitsIcEENS_9allocatorIcEEEENS_12basic_stringIT_T0_T1_EEOS9_PKS6_, symObjAddr: 0x259C, symBinAddr: 0x1000057B4, symSize: 0x40 }
  - { offsetInCU: 0x6C6A, offset: 0x6C6A, size: 0x8, addend: 0x0, symName: __ZNSt3__1eqB8ue170006IPcEEbRKNS_11__wrap_iterIT_EES6_, symObjAddr: 0x26F4, symBinAddr: 0x10000590C, symSize: 0x48 }
  - { offsetInCU: 0x6CAD, offset: 0x6CAD, size: 0x8, addend: 0x0, symName: __ZNSt3__119__libcpp_deallocateB8ue170006EPvmm, symObjAddr: 0x2AC4, symBinAddr: 0x100005CDC, symSize: 0x60 }
  - { offsetInCU: 0x6D12, offset: 0x6D12, size: 0x8, addend: 0x0, symName: __ZNSt3__124__is_overaligned_for_newB8ue170006Em, symObjAddr: 0x2B30, symBinAddr: 0x100005D48, symSize: 0x20 }
  - { offsetInCU: 0x6D40, offset: 0x6D40, size: 0x8, addend: 0x0, symName: __ZNSt3__127__do_deallocate_handle_sizeB8ue170006IJSt11align_val_tEEEvPvmDpT_, symObjAddr: 0x2B50, symBinAddr: 0x100005D68, symSize: 0x30 }
  - { offsetInCU: 0x6D93, offset: 0x6D93, size: 0x8, addend: 0x0, symName: __ZNSt3__127__do_deallocate_handle_sizeB8ue170006IJEEEvPvmDpT_, symObjAddr: 0x2B80, symBinAddr: 0x100005D98, symSize: 0x28 }
  - { offsetInCU: 0x6DD1, offset: 0x6DD1, size: 0x8, addend: 0x0, symName: __ZNSt3__124__libcpp_operator_deleteB8ue170006IJPvSt11align_val_tEEEvDpT_, symObjAddr: 0x2BA8, symBinAddr: 0x100005DC0, symSize: 0x2C }
  - { offsetInCU: 0x6E1A, offset: 0x6E1A, size: 0x8, addend: 0x0, symName: __ZNSt3__124__libcpp_operator_deleteB8ue170006IJPvEEEvDpT_, symObjAddr: 0x2BD4, symBinAddr: 0x100005DEC, symSize: 0x24 }
  - { offsetInCU: 0x6E82, offset: 0x6E82, size: 0x8, addend: 0x0, symName: __ZNSt3__1eqB8ue170006IPNS_6vectorI7Vector2NS_9allocatorIS2_EEEEEEbRKNS_11__wrap_iterIT_EESB_, symObjAddr: 0x2CC0, symBinAddr: 0x100005ED8, symSize: 0x48 }
  - { offsetInCU: 0x6EC5, offset: 0x6EC5, size: 0x8, addend: 0x0, symName: __ZNSt3__112__to_addressB8ue170006I7Vector2EEPT_S3_, symObjAddr: 0x2F80, symBinAddr: 0x100006198, symSize: 0x14 }
  - { offsetInCU: 0x6EFA, offset: 0x6EFA, size: 0x8, addend: 0x0, symName: __ZNSt3__13maxB8ue170006ImEERKT_S3_S3_, symObjAddr: 0x3374, symBinAddr: 0x10000658C, symSize: 0x2C }
  - { offsetInCU: 0x6F3D, offset: 0x6F3D, size: 0x8, addend: 0x0, symName: __ZNSt3__13minB8ue170006ImEERKT_S3_S3_, symObjAddr: 0x33A0, symBinAddr: 0x1000065B8, symSize: 0x2C }
  - { offsetInCU: 0x716A, offset: 0x716A, size: 0x8, addend: 0x0, symName: __ZNSt3__13minB8ue170006ImNS_6__lessIvvEEEERKT_S5_S5_T0_, symObjAddr: 0x342C, symBinAddr: 0x100006644, symSize: 0x54 }
  - { offsetInCU: 0x7209, offset: 0x7209, size: 0x8, addend: 0x0, symName: __ZNSt3__120__throw_length_errorB8ue170006EPKc, symObjAddr: 0x3508, symBinAddr: 0x100006720, symSize: 0x64 }
  - { offsetInCU: 0x7233, offset: 0x7233, size: 0x8, addend: 0x0, symName: __ZNSt3__13maxB8ue170006ImNS_6__lessIvvEEEERKT_S5_S5_T0_, symObjAddr: 0x364C, symBinAddr: 0x100006864, symSize: 0x54 }
  - { offsetInCU: 0x728D, offset: 0x728D, size: 0x8, addend: 0x0, symName: __ZNSt3__119__allocate_at_leastB8ue170006INS_9allocatorI7Vector2EEEENS_19__allocation_resultINS_16allocator_traitsIT_E7pointerEEERS6_m, symObjAddr: 0x37B0, symBinAddr: 0x1000069C8, symSize: 0x40 }
  - { offsetInCU: 0x72D0, offset: 0x72D0, size: 0x8, addend: 0x0, symName: __ZNSt3__117__libcpp_allocateB8ue170006Emm, symObjAddr: 0x3950, symBinAddr: 0x100006B68, symSize: 0x60 }
  - { offsetInCU: 0x732A, offset: 0x732A, size: 0x8, addend: 0x0, symName: __ZNSt3__121__libcpp_operator_newB8ue170006IJmSt11align_val_tEEEPvDpT_, symObjAddr: 0x39B0, symBinAddr: 0x100006BC8, symSize: 0x2C }
  - { offsetInCU: 0x7377, offset: 0x7377, size: 0x8, addend: 0x0, symName: __ZNSt3__121__libcpp_operator_newB8ue170006IJmEEEPvDpT_, symObjAddr: 0x39DC, symBinAddr: 0x100006BF4, symSize: 0x24 }
  - { offsetInCU: 0x73B0, offset: 0x73B0, size: 0x8, addend: 0x0, symName: __ZNSt3__142__uninitialized_allocator_move_if_noexceptB8ue170006INS_9allocatorI7Vector2EENS_16reverse_iteratorIPS2_EES6_S2_vEET1_RT_T0_SA_S7_, symObjAddr: 0x3B1C, symBinAddr: 0x100006D34, symSize: 0x78 }
  - { offsetInCU: 0x742D, offset: 0x742D, size: 0x8, addend: 0x0, symName: __ZNSt3__14swapB8ue170006IP7Vector2EENS_9enable_ifIXaasr21is_move_constructibleIT_EE5valuesr18is_move_assignableIS4_EE5valueEvE4typeERS4_S7_, symObjAddr: 0x3BE0, symBinAddr: 0x100006DF8, symSize: 0x3C }
  - { offsetInCU: 0x747E, offset: 0x747E, size: 0x8, addend: 0x0, symName: __ZNSt3__14moveB8ue170006INS_16reverse_iteratorIP7Vector2EES4_EET0_T_S6_S5_, symObjAddr: 0x3D10, symBinAddr: 0x100006F28, symSize: 0x78 }
  - { offsetInCU: 0x74D8, offset: 0x74D8, size: 0x8, addend: 0x0, symName: __ZNSt3__16__moveB8ue170006INS_17_ClassicAlgPolicyENS_16reverse_iteratorIP7Vector2EES5_S5_EENS_4pairIT0_T2_EES7_T1_S8_, symObjAddr: 0x3D88, symBinAddr: 0x100006FA0, symSize: 0x64 }
  - { offsetInCU: 0x7544, offset: 0x7544, size: 0x8, addend: 0x0, symName: __ZNSt3__123__dispatch_copy_or_moveB8ue170006INS_17_ClassicAlgPolicyENS_11__move_loopIS1_EENS_14__move_trivialENS_16reverse_iteratorIP7Vector2EES8_S8_EENS_4pairIT2_T4_EESA_T3_SB_, symObjAddr: 0x3DEC, symBinAddr: 0x100007004, symSize: 0x64 }
  - { offsetInCU: 0x75C2, offset: 0x75C2, size: 0x8, addend: 0x0, symName: __ZNSt3__121__unwrap_and_dispatchB8ue170006INS_10__overloadINS_11__move_loopINS_17_ClassicAlgPolicyEEENS_14__move_trivialEEENS_16reverse_iteratorIP7Vector2EESA_SA_Li0EEENS_4pairIT0_T2_EESC_T1_SD_, symObjAddr: 0x3E50, symBinAddr: 0x100007068, symSize: 0x12C }
  - { offsetInCU: 0x7652, offset: 0x7652, size: 0x8, addend: 0x0, symName: __ZNSt3__114__unwrap_rangeB8ue170006INS_16reverse_iteratorIP7Vector2EES4_EENS_4pairIT0_S6_EET_S8_, symObjAddr: 0x3F7C, symBinAddr: 0x100007194, symSize: 0x84 }
  - { offsetInCU: 0x77CD, offset: 0x77CD, size: 0x8, addend: 0x0, symName: __ZNSt3__113__unwrap_iterB8ue170006INS_16reverse_iteratorIP7Vector2EENS_18__unwrap_iter_implIS4_Lb0EEELi0EEEDTclsrT0_8__unwrapclsr3stdE7declvalIT_EEEES8_, symObjAddr: 0x40A0, symBinAddr: 0x1000072B8, symSize: 0x44 }
  - { offsetInCU: 0x7811, offset: 0x7811, size: 0x8, addend: 0x0, symName: __ZNSt3__19make_pairB8ue170006INS_16reverse_iteratorIP7Vector2EES4_EENS_4pairINS_18__unwrap_ref_decayIT_E4typeENS6_IT0_E4typeEEEOS7_OSA_, symObjAddr: 0x40E4, symBinAddr: 0x1000072FC, symSize: 0x38 }
  - { offsetInCU: 0x7860, offset: 0x7860, size: 0x8, addend: 0x0, symName: __ZNSt3__114__rewrap_rangeB8ue170006INS_16reverse_iteratorIP7Vector2EES4_EET_S5_T0_, symObjAddr: 0x411C, symBinAddr: 0x100007334, symSize: 0x5C }
  - { offsetInCU: 0x78AC, offset: 0x78AC, size: 0x8, addend: 0x0, symName: __ZNSt3__113__rewrap_iterB8ue170006INS_16reverse_iteratorIP7Vector2EES4_NS_18__unwrap_iter_implIS4_Lb0EEEEET_S7_T0_, symObjAddr: 0x4178, symBinAddr: 0x100007390, symSize: 0x74 }
  - { offsetInCU: 0x7901, offset: 0x7901, size: 0x8, addend: 0x0, symName: __ZNSt3__1neB8ue170006IP7Vector2S2_EEbRKNS_16reverse_iteratorIT_EERKNS3_IT0_EE, symObjAddr: 0x41EC, symBinAddr: 0x100007404, symSize: 0x48 }
  - { offsetInCU: 0x79FF, offset: 0x79FF, size: 0x8, addend: 0x0, symName: __ZNSt3__112__to_addressB8ue170006INS_6vectorI7Vector2NS_9allocatorIS2_EEEEEEPT_S7_, symObjAddr: 0x4A54, symBinAddr: 0x100007C6C, symSize: 0x14 }
  - { offsetInCU: 0x7A34, offset: 0x7A34, size: 0x8, addend: 0x0, symName: __ZNSt3__122__make_exception_guardB8ue170006INS_6vectorI7Vector2NS_9allocatorIS2_EEE16__destroy_vectorEEENS_28__exception_guard_exceptionsIT_EES8_, symObjAddr: 0x4D38, symBinAddr: 0x100007F50, symSize: 0x40 }
  - { offsetInCU: 0x7A69, offset: 0x7A69, size: 0x8, addend: 0x0, symName: __ZNSt3__130__uninitialized_allocator_copyB8ue170006INS_9allocatorI7Vector2EEPS2_S4_S4_EET2_RT_T0_T1_S5_, symObjAddr: 0x4FA4, symBinAddr: 0x1000081BC, symSize: 0x80 }
  - { offsetInCU: 0x7B06, offset: 0x7B06, size: 0x8, addend: 0x0, symName: __ZNSt3__114__unwrap_rangeB8ue170006IP7Vector2S2_EENS_4pairIT0_S4_EET_S6_, symObjAddr: 0x5024, symBinAddr: 0x10000823C, symSize: 0x60 }
  - { offsetInCU: 0x7B52, offset: 0x7B52, size: 0x8, addend: 0x0, symName: __ZNSt3__135__uninitialized_allocator_copy_implB8ue170006INS_9allocatorI7Vector2EES2_S2_S2_LPv0EEEPT2_RT_PT0_SA_S6_, symObjAddr: 0x5084, symBinAddr: 0x10000829C, symSize: 0x38 }
  - { offsetInCU: 0x7BD3, offset: 0x7BD3, size: 0x8, addend: 0x0, symName: __ZNSt3__113__unwrap_iterB8ue170006IP7Vector2NS_18__unwrap_iter_implIS2_Lb1EEELi0EEEDTclsrT0_8__unwrapclsr3stdE7declvalIT_EEEES6_, symObjAddr: 0x50BC, symBinAddr: 0x1000082D4, symSize: 0x24 }
  - { offsetInCU: 0x7C17, offset: 0x7C17, size: 0x8, addend: 0x0, symName: __ZNSt3__113__rewrap_iterB8ue170006IP7Vector2S2_NS_18__unwrap_iter_implIS2_Lb1EEEEET_S5_T0_, symObjAddr: 0x50E0, symBinAddr: 0x1000082F8, symSize: 0x3C }
  - { offsetInCU: 0x7C6C, offset: 0x7C6C, size: 0x8, addend: 0x0, symName: __ZNSt3__19make_pairB8ue170006IP7Vector2S2_EENS_4pairINS_18__unwrap_ref_decayIT_E4typeENS4_IT0_E4typeEEEOS5_OS8_, symObjAddr: 0x511C, symBinAddr: 0x100008334, symSize: 0x38 }
  - { offsetInCU: 0x7DBE, offset: 0x7DBE, size: 0x8, addend: 0x0, symName: __ZNSt3__14copyB8ue170006IP7Vector2S2_EET0_T_S4_S3_, symObjAddr: 0x51C4, symBinAddr: 0x1000083DC, symSize: 0x40 }
  - { offsetInCU: 0x7E18, offset: 0x7E18, size: 0x8, addend: 0x0, symName: __ZNSt3__16__copyB8ue170006INS_17_ClassicAlgPolicyEP7Vector2S3_S3_EENS_4pairIT0_T2_EES5_T1_S6_, symObjAddr: 0x5204, symBinAddr: 0x10000841C, symSize: 0x44 }
  - { offsetInCU: 0x7E84, offset: 0x7E84, size: 0x8, addend: 0x0, symName: __ZNSt3__123__dispatch_copy_or_moveB8ue170006INS_17_ClassicAlgPolicyENS_11__copy_loopIS1_EENS_14__copy_trivialEP7Vector2S6_S6_EENS_4pairIT2_T4_EES8_T3_S9_, symObjAddr: 0x5248, symBinAddr: 0x100008460, symSize: 0x44 }
  - { offsetInCU: 0x7F02, offset: 0x7F02, size: 0x8, addend: 0x0, symName: __ZNSt3__121__unwrap_and_dispatchB8ue170006INS_10__overloadINS_11__copy_loopINS_17_ClassicAlgPolicyEEENS_14__copy_trivialEEEP7Vector2S8_S8_Li0EEENS_4pairIT0_T2_EESA_T1_SB_, symObjAddr: 0x528C, symBinAddr: 0x1000084A4, symSize: 0xB4 }
  - { offsetInCU: 0x7FD6, offset: 0x7FD6, size: 0x8, addend: 0x0, symName: __ZNSt3__114__rewrap_rangeB8ue170006IP7Vector2S2_EET_S3_T0_, symObjAddr: 0x5388, symBinAddr: 0x1000085A0, symSize: 0x2C }
  - { offsetInCU: 0x8022, offset: 0x8022, size: 0x8, addend: 0x0, symName: __ZNSt3__119__copy_trivial_implB8ue170006I7Vector2S1_EENS_4pairIPT_PT0_EES4_S4_S6_, symObjAddr: 0x53B4, symBinAddr: 0x1000085CC, symSize: 0x80 }
  - { offsetInCU: 0x808A, offset: 0x808A, size: 0x8, addend: 0x0, symName: __ZNSt3__119__constexpr_memmoveB8ue170006I7Vector2S1_Li0EEEPT_S3_PT0_NS_15__element_countE, symObjAddr: 0x5434, symBinAddr: 0x10000864C, symSize: 0x64 }
  - { offsetInCU: 0x80F8, offset: 0x80F8, size: 0x8, addend: 0x0, symName: __ZNSt3__19make_pairB8ue170006IRP7Vector2S2_EENS_4pairINS_18__unwrap_ref_decayIT_E4typeENS5_IT0_E4typeEEEOS6_OS9_, symObjAddr: 0x5498, symBinAddr: 0x1000086B0, symSize: 0x38 }
  - { offsetInCU: 0x819A, offset: 0x819A, size: 0x8, addend: 0x0, symName: __ZNSt3__119__allocate_at_leastB8ue170006INS_9allocatorINS_6vectorI7Vector2NS1_IS3_EEEEEEEENS_19__allocation_resultINS_16allocator_traitsIT_E7pointerEEERS9_m, symObjAddr: 0x5CD0, symBinAddr: 0x100008EE8, symSize: 0x40 }
  - { offsetInCU: 0x81DD, offset: 0x81DD, size: 0x8, addend: 0x0, symName: __ZNSt3__142__uninitialized_allocator_move_if_noexceptB8ue170006INS_9allocatorINS_6vectorI7Vector2NS1_IS3_EEEEEENS_16reverse_iteratorIPS5_EES9_S9_EET2_RT_T0_T1_SA_, symObjAddr: 0x5F78, symBinAddr: 0x100009190, symSize: 0x12C }
  - { offsetInCU: 0x827D, offset: 0x827D, size: 0x8, addend: 0x0, symName: __ZNSt3__14swapB8ue170006IPNS_6vectorI7Vector2NS_9allocatorIS2_EEEEEENS_9enable_ifIXaasr21is_move_constructibleIT_EE5valuesr18is_move_assignableIS8_EE5valueEvE4typeERS8_SB_, symObjAddr: 0x60F0, symBinAddr: 0x100009308, symSize: 0x3C }
  - { offsetInCU: 0x82CE, offset: 0x82CE, size: 0x8, addend: 0x0, symName: __ZNSt3__122__make_exception_guardB8ue170006INS_29_AllocatorDestroyRangeReverseINS_9allocatorINS_6vectorI7Vector2NS2_IS4_EEEEEENS_16reverse_iteratorIPS6_EEEEEENS_28__exception_guard_exceptionsIT_EESD_, symObjAddr: 0x623C, symBinAddr: 0x100009454, symSize: 0x4C }
  - { offsetInCU: 0x8304, offset: 0x8304, size: 0x8, addend: 0x0, symName: __ZNSt3__1neB8ue170006IPNS_6vectorI7Vector2NS_9allocatorIS2_EEEES6_EEbRKNS_16reverse_iteratorIT_EERKNS7_IT0_EE, symObjAddr: 0x62CC, symBinAddr: 0x1000094E4, symSize: 0x48 }
  - { offsetInCU: 0x8350, offset: 0x8350, size: 0x8, addend: 0x0, symName: __ZNSt3__112__to_addressB8ue170006INS_16reverse_iteratorIPNS_6vectorI7Vector2NS_9allocatorIS3_EEEEEEvEEu7__decayIDTclsr19__to_address_helperIT_EE6__callclsr3stdE7declvalIRKS9_EEEEESB_, symObjAddr: 0x6348, symBinAddr: 0x100009560, symSize: 0x24 }
  - { offsetInCU: 0x83AF, offset: 0x83AF, size: 0x8, addend: 0x0, symName: __ZNSt3__119__allocator_destroyB8ue170006INS_9allocatorINS_6vectorI7Vector2NS1_IS3_EEEEEENS_16reverse_iteratorINS7_IPS5_EEEESA_EEvRT_T0_T1_, symObjAddr: 0x6720, symBinAddr: 0x100009938, symSize: 0x70 }
  - { offsetInCU: 0x8414, offset: 0x8414, size: 0x8, addend: 0x0, symName: __ZNSt3__1neB8ue170006INS_16reverse_iteratorIPNS_6vectorI7Vector2NS_9allocatorIS3_EEEEEES8_EEbRKNS1_IT_EERKNS1_IT0_EE, symObjAddr: 0x67CC, symBinAddr: 0x1000099E4, symSize: 0x60 }
  - { offsetInCU: 0x8460, offset: 0x8460, size: 0x8, addend: 0x0, symName: __ZNSt3__112__to_addressB8ue170006INS_16reverse_iteratorINS1_IPNS_6vectorI7Vector2NS_9allocatorIS3_EEEEEEEEvEEu7__decayIDTclsr19__to_address_helperIT_EE6__callclsr3stdE7declvalIRKSA_EEEEESC_, symObjAddr: 0x6858, symBinAddr: 0x100009A70, symSize: 0x24 }
  - { offsetInCU: 0x84BF, offset: 0x84BF, size: 0x8, addend: 0x0, symName: __ZNSt3__118__constexpr_strlenB8ue170006EPKc, symObjAddr: 0x6E88, symBinAddr: 0x10000A0A0, symSize: 0x24 }
  - { offsetInCU: 0x84EB, offset: 0x84EB, size: 0x8, addend: 0x0, symName: __ZNSt3__112__to_addressB8ue170006IKcEEPT_S3_, symObjAddr: 0x7208, symBinAddr: 0x10000A420, symSize: 0x14 }
  - { offsetInCU: 0x88EB, offset: 0x88EB, size: 0x8, addend: 0x0, symName: __ZSt28__throw_bad_array_new_lengthB8ue170006v, symObjAddr: 0x391C, symBinAddr: 0x100006B34, symSize: 0x34 }
  - { offsetInCU: 0x8D2D, offset: 0x8D2D, size: 0x8, addend: 0x0, symName: __ZNSt3__16vectorI7Vector2NS_9allocatorIS1_EEE26__swap_out_circular_bufferERNS_14__split_bufferIS1_RS3_EE, symObjAddr: 0x317C, symBinAddr: 0x100006394, symSize: 0x110 }
  - { offsetInCU: 0x8F12, offset: 0x8F12, size: 0x8, addend: 0x0, symName: __ZNSt3__16vectorINS0_I7Vector2NS_9allocatorIS1_EEEENS2_IS4_EEE26__swap_out_circular_bufferERNS_14__split_bufferIS4_RS5_EE, symObjAddr: 0x58C0, symBinAddr: 0x100008AD8, symSize: 0x110 }
  - { offsetInCU: 0x9604, offset: 0x9604, size: 0x8, addend: 0x0, symName: __Z7toloweri, symObjAddr: 0x11DC, symBinAddr: 0x1000043F4, symSize: 0x24 }
  - { offsetInCU: 0xB25E, offset: 0xB25E, size: 0x8, addend: 0x0, symName: __Z11DrawSinFuncff, symObjAddr: 0x0, symBinAddr: 0x100003218, symSize: 0x1B4 }
  - { offsetInCU: 0xB374, offset: 0xB374, size: 0x8, addend: 0x0, symName: __Z11DrawCosFuncff, symObjAddr: 0x1B4, symBinAddr: 0x1000033CC, symSize: 0x1B0 }
  - { offsetInCU: 0xB48A, offset: 0xB48A, size: 0x8, addend: 0x0, symName: __Z11DrawTanFuncff, symObjAddr: 0x364, symBinAddr: 0x10000357C, symSize: 0x1B0 }
  - { offsetInCU: 0xB5A0, offset: 0xB5A0, size: 0x8, addend: 0x0, symName: __Z13InitSinPointsff, symObjAddr: 0x514, symBinAddr: 0x10000372C, symSize: 0x148 }
  - { offsetInCU: 0xB67E, offset: 0xB67E, size: 0x8, addend: 0x0, symName: __ZNSt3__16vectorI7Vector2NS_9allocatorIS1_EEE9push_backB8ue170006EOS1_, symObjAddr: 0x65C, symBinAddr: 0x100003874, symSize: 0x6C }
  - { offsetInCU: 0xB6B3, offset: 0xB6B3, size: 0x8, addend: 0x0, symName: __Z14AnimateSinFuncv, symObjAddr: 0x6C8, symBinAddr: 0x1000038E0, symSize: 0x29C }
  - { offsetInCU: 0xB705, offset: 0xB705, size: 0x8, addend: 0x0, symName: __ZNKSt3__16vectorI7Vector2NS_9allocatorIS1_EEE4sizeB8ue170006Ev, symObjAddr: 0x964, symBinAddr: 0x100003B7C, symSize: 0x28 }
  - { offsetInCU: 0xB729, offset: 0xB729, size: 0x8, addend: 0x0, symName: __ZNSt3__16vectorI7Vector2NS_9allocatorIS1_EEE9push_backB8ue170006ERKS1_, symObjAddr: 0x98C, symBinAddr: 0x100003BA4, symSize: 0x6C }
  - { offsetInCU: 0xB75E, offset: 0xB75E, size: 0x8, addend: 0x0, symName: __ZNSt3__16vectorI7Vector2NS_9allocatorIS1_EEEixB8ue170006Em, symObjAddr: 0x9F8, symBinAddr: 0x100003C10, symSize: 0x24 }
  - { offsetInCU: 0xB793, offset: 0xB793, size: 0x8, addend: 0x0, symName: __Z15pushPointsToAllv, symObjAddr: 0xA1C, symBinAddr: 0x100003C34, symSize: 0xAC }
  - { offsetInCU: 0xB7AC, offset: 0xB7AC, size: 0x8, addend: 0x0, symName: __ZNSt3__16vectorINS0_I7Vector2NS_9allocatorIS1_EEEENS2_IS4_EEE9push_backB8ue170006ERKS4_, symObjAddr: 0xAC8, symBinAddr: 0x100003CE0, symSize: 0x6C }
  - { offsetInCU: 0xB7E1, offset: 0xB7E1, size: 0x8, addend: 0x0, symName: __Z10InitPointsffNSt3__112basic_stringIcNS_11char_traitsIcEENS_9allocatorIcEEEE, symObjAddr: 0xB34, symBinAddr: 0x100003D4C, symSize: 0x5BC }
  - { offsetInCU: 0xBA59, offset: 0xBA59, size: 0x8, addend: 0x0, symName: __ZNSt3__112basic_stringIcNS_11char_traitsIcEENS_9allocatorIcEEE5beginB8ue170006Ev, symObjAddr: 0x10F0, symBinAddr: 0x100004308, symSize: 0x4C }
  - { offsetInCU: 0xBA7D, offset: 0xBA7D, size: 0x8, addend: 0x0, symName: __ZNSt3__112basic_stringIcNS_11char_traitsIcEENS_9allocatorIcEEE3endB8ue170006Ev, symObjAddr: 0x113C, symBinAddr: 0x100004354, symSize: 0x54 }
  - { offsetInCU: 0xBAA1, offset: 0xBAA1, size: 0x8, addend: 0x0, symName: __ZNKSt3__111__wrap_iterIPcEdeB8ue170006Ev, symObjAddr: 0x11C4, symBinAddr: 0x1000043DC, symSize: 0x18 }
  - { offsetInCU: 0xBAC5, offset: 0xBAC5, size: 0x8, addend: 0x0, symName: __ZNSt3__111__wrap_iterIPcEppB8ue170006Ev, symObjAddr: 0x1200, symBinAddr: 0x100004418, symSize: 0x20 }
  - { offsetInCU: 0xBB4A, offset: 0xBB4A, size: 0x8, addend: 0x0, symName: __ZN8WaveInfoaSEOS_, symObjAddr: 0x12CC, symBinAddr: 0x1000044E4, symSize: 0x48 }
  - { offsetInCU: 0xBB79, offset: 0xBB79, size: 0x8, addend: 0x0, symName: __ZN8WaveInfoD1Ev, symObjAddr: 0x1314, symBinAddr: 0x10000452C, symSize: 0x2C }
  - { offsetInCU: 0xBBA3, offset: 0xBBA3, size: 0x8, addend: 0x0, symName: __Z11AnimateFuncNSt3__112basic_stringIcNS_11char_traitsIcEENS_9allocatorIcEEEE5Color, symObjAddr: 0x1340, symBinAddr: 0x100004558, symSize: 0xA54 }
  - { offsetInCU: 0xBD19, offset: 0xBD19, size: 0x8, addend: 0x0, symName: __Z12resizePointsv, symObjAddr: 0x1D94, symBinAddr: 0x100004FAC, symSize: 0x2F8 }
  - { offsetInCU: 0xBDD6, offset: 0xBDD6, size: 0x8, addend: 0x0, symName: __ZNSt3__16vectorINS0_I7Vector2NS_9allocatorIS1_EEEENS2_IS4_EEE5beginB8ue170006Ev, symObjAddr: 0x208C, symBinAddr: 0x1000052A4, symSize: 0x30 }
  - { offsetInCU: 0xBDFC, offset: 0xBDFC, size: 0x8, addend: 0x0, symName: __ZNSt3__16vectorINS0_I7Vector2NS_9allocatorIS1_EEEENS2_IS4_EEE3endB8ue170006Ev, symObjAddr: 0x20BC, symBinAddr: 0x1000052D4, symSize: 0x30 }
  - { offsetInCU: 0xBE22, offset: 0xBE22, size: 0x8, addend: 0x0, symName: __ZNKSt3__111__wrap_iterIPNS_6vectorI7Vector2NS_9allocatorIS2_EEEEEdeB8ue170006Ev, symObjAddr: 0x2120, symBinAddr: 0x100005338, symSize: 0x18 }
  - { offsetInCU: 0xBE46, offset: 0xBE46, size: 0x8, addend: 0x0, symName: __ZNSt3__16vectorI7Vector2NS_9allocatorIS1_EEE5clearB8ue170006Ev, symObjAddr: 0x2138, symBinAddr: 0x100005350, symSize: 0x44 }
  - { offsetInCU: 0xBE79, offset: 0xBE79, size: 0x8, addend: 0x0, symName: __ZNSt3__111__wrap_iterIPNS_6vectorI7Vector2NS_9allocatorIS2_EEEEEppB8ue170006Ev, symObjAddr: 0x217C, symBinAddr: 0x100005394, symSize: 0x20 }
  - { offsetInCU: 0xBE9D, offset: 0xBE9D, size: 0x8, addend: 0x0, symName: __Z16DrawNumericTicksv, symObjAddr: 0x219C, symBinAddr: 0x1000053B4, symSize: 0x1B4 }
  - { offsetInCU: 0xBFB3, offset: 0xBFB3, size: 0x8, addend: 0x0, symName: __Z15DrawRadianTicksv, symObjAddr: 0x2350, symBinAddr: 0x100005568, symSize: 0x220 }
  - { offsetInCU: 0xC088, offset: 0xC088, size: 0x8, addend: 0x0, symName: __ZNSt3__112basic_stringIcNS_11char_traitsIcEENS_9allocatorIcEEEC1B8ue170006Ev, symObjAddr: 0x2570, symBinAddr: 0x100005788, symSize: 0x2C }
  - { offsetInCU: 0xC0B0, offset: 0xC0B0, size: 0x8, addend: 0x0, symName: __ZNKSt3__112basic_stringIcNS_11char_traitsIcEENS_9allocatorIcEEE5c_strB8ue170006Ev, symObjAddr: 0x25DC, symBinAddr: 0x1000057F4, symSize: 0x24 }
  - { offsetInCU: 0xC0D4, offset: 0xC0D4, size: 0x8, addend: 0x0, symName: __Z19DrawCoordinatePlanev, symObjAddr: 0x2600, symBinAddr: 0x100005818, symSize: 0xF4 }
  - { offsetInCU: 0xC185, offset: 0xC185, size: 0x8, addend: 0x0, symName: __ZNKSt3__111__wrap_iterIPcE4baseB8ue170006Ev, symObjAddr: 0x273C, symBinAddr: 0x100005954, symSize: 0x18 }
  - { offsetInCU: 0xC1A9, offset: 0xC1A9, size: 0x8, addend: 0x0, symName: __ZNSt3__112basic_stringIcNS_11char_traitsIcEENS_9allocatorIcEEEaSB8ue170006EOS5_, symObjAddr: 0x2754, symBinAddr: 0x10000596C, symSize: 0x34 }
  - { offsetInCU: 0xC1DC, offset: 0xC1DC, size: 0x8, addend: 0x0, symName: __ZNSt3__112basic_stringIcNS_11char_traitsIcEENS_9allocatorIcEEE13__move_assignB8ue170006ERS5_NS_17integral_constantIbLb1EEE, symObjAddr: 0x2788, symBinAddr: 0x1000059A0, symSize: 0xC8 }
  - { offsetInCU: 0xC21C, offset: 0xC21C, size: 0x8, addend: 0x0, symName: __ZNKSt3__112basic_stringIcNS_11char_traitsIcEENS_9allocatorIcEEE9__is_longB8ue170006Ev, symObjAddr: 0x2850, symBinAddr: 0x100005A68, symSize: 0x38 }
  - { offsetInCU: 0xC241, offset: 0xC241, size: 0x8, addend: 0x0, symName: __ZNSt3__116allocator_traitsINS_9allocatorIcEEE10deallocateB8ue170006ERS2_Pcm, symObjAddr: 0x2888, symBinAddr: 0x100005AA0, symSize: 0x34 }
  - { offsetInCU: 0xC282, offset: 0xC282, size: 0x8, addend: 0x0, symName: __ZNSt3__112basic_stringIcNS_11char_traitsIcEENS_9allocatorIcEEE7__allocB8ue170006Ev, symObjAddr: 0x28BC, symBinAddr: 0x100005AD4, symSize: 0x24 }
  - { offsetInCU: 0xC2A6, offset: 0xC2A6, size: 0x8, addend: 0x0, symName: __ZNSt3__112basic_stringIcNS_11char_traitsIcEENS_9allocatorIcEEE18__get_long_pointerB8ue170006Ev, symObjAddr: 0x28E0, symBinAddr: 0x100005AF8, symSize: 0x28 }
  - { offsetInCU: 0xC2CA, offset: 0xC2CA, size: 0x8, addend: 0x0, symName: __ZNKSt3__112basic_stringIcNS_11char_traitsIcEENS_9allocatorIcEEE14__get_long_capB8ue170006Ev, symObjAddr: 0x2908, symBinAddr: 0x100005B20, symSize: 0x30 }
  - { offsetInCU: 0xC2EE, offset: 0xC2EE, size: 0x8, addend: 0x0, symName: __ZNSt3__112basic_stringIcNS_11char_traitsIcEENS_9allocatorIcEEE19__move_assign_allocB8ue170006ERS5_, symObjAddr: 0x2938, symBinAddr: 0x100005B50, symSize: 0x2C }
  - { offsetInCU: 0xC321, offset: 0xC321, size: 0x8, addend: 0x0, symName: __ZNSt3__117__compressed_pairINS_12basic_stringIcNS_11char_traitsIcEENS_9allocatorIcEEE5__repES5_E5firstB8ue170006Ev, symObjAddr: 0x2964, symBinAddr: 0x100005B7C, symSize: 0x24 }
  - { offsetInCU: 0xC345, offset: 0xC345, size: 0x8, addend: 0x0, symName: __ZNSt3__112basic_stringIcNS_11char_traitsIcEENS_9allocatorIcEEE16__set_short_sizeB8ue170006Em, symObjAddr: 0x2988, symBinAddr: 0x100005BA0, symSize: 0x78 }
  - { offsetInCU: 0xC379, offset: 0xC379, size: 0x8, addend: 0x0, symName: __ZNSt3__111char_traitsIcE6assignB8ue170006ERcRKc, symObjAddr: 0x2A00, symBinAddr: 0x100005C18, symSize: 0x24 }
  - { offsetInCU: 0xC3A9, offset: 0xC3A9, size: 0x8, addend: 0x0, symName: __ZNSt3__112basic_stringIcNS_11char_traitsIcEENS_9allocatorIcEEE19__get_short_pointerB8ue170006Ev, symObjAddr: 0x2A24, symBinAddr: 0x100005C3C, symSize: 0x28 }
  - { offsetInCU: 0xC3CD, offset: 0xC3CD, size: 0x8, addend: 0x0, symName: __ZNKSt3__117__compressed_pairINS_12basic_stringIcNS_11char_traitsIcEENS_9allocatorIcEEE5__repES5_E5firstB8ue170006Ev, symObjAddr: 0x2A4C, symBinAddr: 0x100005C64, symSize: 0x24 }
  - { offsetInCU: 0xC3F1, offset: 0xC3F1, size: 0x8, addend: 0x0, symName: __ZNKSt3__122__compressed_pair_elemINS_12basic_stringIcNS_11char_traitsIcEENS_9allocatorIcEEE5__repELi0ELb0EE5__getB8ue170006Ev, symObjAddr: 0x2A70, symBinAddr: 0x100005C88, symSize: 0x14 }
  - { offsetInCU: 0xC415, offset: 0xC415, size: 0x8, addend: 0x0, symName: __ZNSt3__19allocatorIcE10deallocateB8ue170006EPcm, symObjAddr: 0x2A84, symBinAddr: 0x100005C9C, symSize: 0x40 }
  - { offsetInCU: 0xC455, offset: 0xC455, size: 0x8, addend: 0x0, symName: __ZNSt3__117__compressed_pairINS_12basic_stringIcNS_11char_traitsIcEENS_9allocatorIcEEE5__repES5_E6secondB8ue170006Ev, symObjAddr: 0x2BF8, symBinAddr: 0x100005E10, symSize: 0x24 }
  - { offsetInCU: 0xC479, offset: 0xC479, size: 0x8, addend: 0x0, symName: __ZNSt3__122__compressed_pair_elemINS_9allocatorIcEELi1ELb1EE5__getB8ue170006Ev, symObjAddr: 0x2C1C, symBinAddr: 0x100005E34, symSize: 0x14 }
  - { offsetInCU: 0xC49D, offset: 0xC49D, size: 0x8, addend: 0x0, symName: __ZNSt3__112basic_stringIcNS_11char_traitsIcEENS_9allocatorIcEEE19__move_assign_allocB8ue170006ERS5_NS_17integral_constantIbLb1EEE, symObjAddr: 0x2C30, symBinAddr: 0x100005E48, symSize: 0x38 }
  - { offsetInCU: 0xC4DB, offset: 0xC4DB, size: 0x8, addend: 0x0, symName: __ZNSt3__122__compressed_pair_elemINS_12basic_stringIcNS_11char_traitsIcEENS_9allocatorIcEEE5__repELi0ELb0EE5__getB8ue170006Ev, symObjAddr: 0x2C68, symBinAddr: 0x100005E80, symSize: 0x14 }
  - { offsetInCU: 0xC500, offset: 0xC500, size: 0x8, addend: 0x0, symName: __ZNSt3__114pointer_traitsIPcE10pointer_toB8ue170006ERc, symObjAddr: 0x2C7C, symBinAddr: 0x100005E94, symSize: 0x14 }
  - { offsetInCU: 0xC523, offset: 0xC523, size: 0x8, addend: 0x0, symName: __ZN8WaveInfoD2Ev, symObjAddr: 0x2C90, symBinAddr: 0x100005EA8, symSize: 0x30 }
  - { offsetInCU: 0xC54D, offset: 0xC54D, size: 0x8, addend: 0x0, symName: __ZNKSt3__111__wrap_iterIPNS_6vectorI7Vector2NS_9allocatorIS2_EEEEE4baseB8ue170006Ev, symObjAddr: 0x2D08, symBinAddr: 0x100005F20, symSize: 0x18 }
  - { offsetInCU: 0xC571, offset: 0xC571, size: 0x8, addend: 0x0, symName: __ZNSt3__16vectorI7Vector2NS_9allocatorIS1_EEE9__end_capB8ue170006Ev, symObjAddr: 0x2D20, symBinAddr: 0x100005F38, symSize: 0x28 }
  - { offsetInCU: 0xC59A, offset: 0xC59A, size: 0x8, addend: 0x0, symName: __ZNSt3__16vectorI7Vector2NS_9allocatorIS1_EEE22__construct_one_at_endB8ue170006IJS1_EEEvDpOT_, symObjAddr: 0x2D48, symBinAddr: 0x100005F60, symSize: 0x90 }
  - { offsetInCU: 0xC5E7, offset: 0xC5E7, size: 0x8, addend: 0x0, symName: __ZNSt3__16vectorI7Vector2NS_9allocatorIS1_EEE21__push_back_slow_pathIS1_EEvOT_, symObjAddr: 0x2DD8, symBinAddr: 0x100005FF0, symSize: 0xD8 }
  - { offsetInCU: 0xC643, offset: 0xC643, size: 0x8, addend: 0x0, symName: __ZNSt3__117__compressed_pairIP7Vector2NS_9allocatorIS1_EEE5firstB8ue170006Ev, symObjAddr: 0x2EB0, symBinAddr: 0x1000060C8, symSize: 0x24 }
  - { offsetInCU: 0xC667, offset: 0xC667, size: 0x8, addend: 0x0, symName: __ZNSt3__122__compressed_pair_elemIP7Vector2Li0ELb0EE5__getB8ue170006Ev, symObjAddr: 0x2ED4, symBinAddr: 0x1000060EC, symSize: 0x14 }
  - { offsetInCU: 0xC6A5, offset: 0xC6A5, size: 0x8, addend: 0x0, symName: __ZNSt3__16vectorI7Vector2NS_9allocatorIS1_EEE21_ConstructTransactionC1B8ue170006ERS4_m, symObjAddr: 0x2EE8, symBinAddr: 0x100006100, symSize: 0x3C }
  - { offsetInCU: 0xC6EC, offset: 0xC6EC, size: 0x8, addend: 0x0, symName: __ZNSt3__116allocator_traitsINS_9allocatorI7Vector2EEE9constructB8ue170006IS2_JS2_EvEEvRS3_PT_DpOT0_, symObjAddr: 0x2F24, symBinAddr: 0x10000613C, symSize: 0x34 }
  - { offsetInCU: 0xC742, offset: 0xC742, size: 0x8, addend: 0x0, symName: __ZNSt3__16vectorI7Vector2NS_9allocatorIS1_EEE7__allocB8ue170006Ev, symObjAddr: 0x2F58, symBinAddr: 0x100006170, symSize: 0x28 }
  - { offsetInCU: 0xC767, offset: 0xC767, size: 0x8, addend: 0x0, symName: __ZNSt3__16vectorI7Vector2NS_9allocatorIS1_EEE21_ConstructTransactionD1B8ue170006Ev, symObjAddr: 0x2F94, symBinAddr: 0x1000061AC, symSize: 0x2C }
  - { offsetInCU: 0xC790, offset: 0xC790, size: 0x8, addend: 0x0, symName: __ZNSt3__16vectorI7Vector2NS_9allocatorIS1_EEE21_ConstructTransactionC2B8ue170006ERS4_m, symObjAddr: 0x2FC0, symBinAddr: 0x1000061D8, symSize: 0x44 }
  - { offsetInCU: 0xC7D6, offset: 0xC7D6, size: 0x8, addend: 0x0, symName: __ZNSt3__19allocatorI7Vector2E9constructB8ue170006IS1_JS1_EEEvPT_DpOT0_, symObjAddr: 0x3004, symBinAddr: 0x10000621C, symSize: 0x28 }
  - { offsetInCU: 0xC82A, offset: 0xC82A, size: 0x8, addend: 0x0, symName: __ZNSt3__117__compressed_pairIP7Vector2NS_9allocatorIS1_EEE6secondB8ue170006Ev, symObjAddr: 0x302C, symBinAddr: 0x100006244, symSize: 0x24 }
  - { offsetInCU: 0xC84E, offset: 0xC84E, size: 0x8, addend: 0x0, symName: __ZNSt3__122__compressed_pair_elemINS_9allocatorI7Vector2EELi1ELb1EE5__getB8ue170006Ev, symObjAddr: 0x3050, symBinAddr: 0x100006268, symSize: 0x14 }
  - { offsetInCU: 0xC873, offset: 0xC873, size: 0x8, addend: 0x0, symName: __ZNSt3__16vectorI7Vector2NS_9allocatorIS1_EEE21_ConstructTransactionD2B8ue170006Ev, symObjAddr: 0x3064, symBinAddr: 0x10000627C, symSize: 0x20 }
  - { offsetInCU: 0xC89B, offset: 0xC89B, size: 0x8, addend: 0x0, symName: __ZNKSt3__16vectorI7Vector2NS_9allocatorIS1_EEE11__recommendB8ue170006Em, symObjAddr: 0x3084, symBinAddr: 0x10000629C, symSize: 0xB4 }
  - { offsetInCU: 0xC8EF, offset: 0xC8EF, size: 0x8, addend: 0x0, symName: __ZNSt3__114__split_bufferI7Vector2RNS_9allocatorIS1_EEEC1EmmS4_, symObjAddr: 0x3138, symBinAddr: 0x100006350, symSize: 0x44 }
  - { offsetInCU: 0xC944, offset: 0xC944, size: 0x8, addend: 0x0, symName: __ZNSt3__114__split_bufferI7Vector2RNS_9allocatorIS1_EEED1Ev, symObjAddr: 0x328C, symBinAddr: 0x1000064A4, symSize: 0x2C }
  - { offsetInCU: 0xC96E, offset: 0xC96E, size: 0x8, addend: 0x0, symName: __ZNKSt3__16vectorI7Vector2NS_9allocatorIS1_EEE8max_sizeEv, symObjAddr: 0x32B8, symBinAddr: 0x1000064D0, symSize: 0x60 }
  - { offsetInCU: 0xC994, offset: 0xC994, size: 0x8, addend: 0x0, symName: __ZNKSt3__16vectorI7Vector2NS_9allocatorIS1_EEE20__throw_length_errorB8ue170006Ev, symObjAddr: 0x3318, symBinAddr: 0x100006530, symSize: 0x1C }
  - { offsetInCU: 0xC9B8, offset: 0xC9B8, size: 0x8, addend: 0x0, symName: __ZNKSt3__16vectorI7Vector2NS_9allocatorIS1_EEE8capacityB8ue170006Ev, symObjAddr: 0x3334, symBinAddr: 0x10000654C, symSize: 0x40 }
  - { offsetInCU: 0xC9E7, offset: 0xC9E7, size: 0x8, addend: 0x0, symName: __ZNSt3__116allocator_traitsINS_9allocatorI7Vector2EEE8max_sizeB8ue170006IS3_vEEmRKS3_, symObjAddr: 0x33CC, symBinAddr: 0x1000065E4, symSize: 0x24 }
  - { offsetInCU: 0xCA14, offset: 0xCA14, size: 0x8, addend: 0x0, symName: __ZNKSt3__16vectorI7Vector2NS_9allocatorIS1_EEE7__allocB8ue170006Ev, symObjAddr: 0x33F0, symBinAddr: 0x100006608, symSize: 0x28 }
  - { offsetInCU: 0xCA39, offset: 0xCA39, size: 0x8, addend: 0x0, symName: __ZNSt3__114numeric_limitsIlE3maxB8ue170006Ev, symObjAddr: 0x3418, symBinAddr: 0x100006630, symSize: 0x14 }
  - { offsetInCU: 0xCA60, offset: 0xCA60, size: 0x8, addend: 0x0, symName: __ZNKSt3__16__lessIvvEclB8ue170006ImmEEbRKT_RKT0_, symObjAddr: 0x3480, symBinAddr: 0x100006698, symSize: 0x34 }
  - { offsetInCU: 0xCAB2, offset: 0xCAB2, size: 0x8, addend: 0x0, symName: __ZNKSt3__19allocatorI7Vector2E8max_sizeB8ue170006Ev, symObjAddr: 0x34B4, symBinAddr: 0x1000066CC, symSize: 0x14 }
  - { offsetInCU: 0xCAD6, offset: 0xCAD6, size: 0x8, addend: 0x0, symName: __ZNKSt3__117__compressed_pairIP7Vector2NS_9allocatorIS1_EEE6secondB8ue170006Ev, symObjAddr: 0x34C8, symBinAddr: 0x1000066E0, symSize: 0x24 }
  - { offsetInCU: 0xCAFA, offset: 0xCAFA, size: 0x8, addend: 0x0, symName: __ZNKSt3__122__compressed_pair_elemINS_9allocatorI7Vector2EELi1ELb1EE5__getB8ue170006Ev, symObjAddr: 0x34EC, symBinAddr: 0x100006704, symSize: 0x14 }
  - { offsetInCU: 0xCB1F, offset: 0xCB1F, size: 0x8, addend: 0x0, symName: __ZNSt3__123__libcpp_numeric_limitsIlLb1EE3maxB8ue170006Ev, symObjAddr: 0x3500, symBinAddr: 0x100006718, symSize: 0x8 }
  - { offsetInCU: 0xCB33, offset: 0xCB33, size: 0x8, addend: 0x0, symName: __ZNSt12length_errorC1B8ue170006EPKc, symObjAddr: 0x356C, symBinAddr: 0x100006784, symSize: 0x34 }
  - { offsetInCU: 0xCB6A, offset: 0xCB6A, size: 0x8, addend: 0x0, symName: __ZNSt12length_errorC2B8ue170006EPKc, symObjAddr: 0x35A0, symBinAddr: 0x1000067B8, symSize: 0x4C }
  - { offsetInCU: 0xCBA0, offset: 0xCBA0, size: 0x8, addend: 0x0, symName: __ZNKSt3__16vectorI7Vector2NS_9allocatorIS1_EEE9__end_capB8ue170006Ev, symObjAddr: 0x35EC, symBinAddr: 0x100006804, symSize: 0x28 }
  - { offsetInCU: 0xCBC4, offset: 0xCBC4, size: 0x8, addend: 0x0, symName: __ZNKSt3__117__compressed_pairIP7Vector2NS_9allocatorIS1_EEE5firstB8ue170006Ev, symObjAddr: 0x3614, symBinAddr: 0x10000682C, symSize: 0x24 }
  - { offsetInCU: 0xCBE8, offset: 0xCBE8, size: 0x8, addend: 0x0, symName: __ZNKSt3__122__compressed_pair_elemIP7Vector2Li0ELb0EE5__getB8ue170006Ev, symObjAddr: 0x3638, symBinAddr: 0x100006850, symSize: 0x14 }
  - { offsetInCU: 0xCC0D, offset: 0xCC0D, size: 0x8, addend: 0x0, symName: __ZNSt3__114__split_bufferI7Vector2RNS_9allocatorIS1_EEEC2EmmS4_, symObjAddr: 0x36A0, symBinAddr: 0x1000068B8, symSize: 0xD4 }
  - { offsetInCU: 0xCC84, offset: 0xCC84, size: 0x8, addend: 0x0, symName: __ZNSt3__117__compressed_pairIP7Vector2RNS_9allocatorIS1_EEEC1B8ue170006IDnS5_EEOT_OT0_, symObjAddr: 0x3774, symBinAddr: 0x10000698C, symSize: 0x3C }
  - { offsetInCU: 0xCCDA, offset: 0xCCDA, size: 0x8, addend: 0x0, symName: __ZNSt3__114__split_bufferI7Vector2RNS_9allocatorIS1_EEE7__allocB8ue170006Ev, symObjAddr: 0x37F0, symBinAddr: 0x100006A08, symSize: 0x28 }
  - { offsetInCU: 0xCCFE, offset: 0xCCFE, size: 0x8, addend: 0x0, symName: __ZNSt3__114__split_bufferI7Vector2RNS_9allocatorIS1_EEE9__end_capB8ue170006Ev, symObjAddr: 0x3818, symBinAddr: 0x100006A30, symSize: 0x28 }
  - { offsetInCU: 0xCD23, offset: 0xCD23, size: 0x8, addend: 0x0, symName: __ZNSt3__117__compressed_pairIP7Vector2RNS_9allocatorIS1_EEEC2B8ue170006IDnS5_EEOT_OT0_, symObjAddr: 0x3840, symBinAddr: 0x100006A58, symSize: 0x48 }
  - { offsetInCU: 0xCD7A, offset: 0xCD7A, size: 0x8, addend: 0x0, symName: __ZNSt3__122__compressed_pair_elemIP7Vector2Li0ELb0EEC2B8ue170006IDnvEEOT_, symObjAddr: 0x3888, symBinAddr: 0x100006AA0, symSize: 0x1C }
  - { offsetInCU: 0xCDBB, offset: 0xCDBB, size: 0x8, addend: 0x0, symName: __ZNSt3__122__compressed_pair_elemIRNS_9allocatorI7Vector2EELi1ELb0EEC2B8ue170006IS4_vEEOT_, symObjAddr: 0x38A4, symBinAddr: 0x100006ABC, symSize: 0x20 }
  - { offsetInCU: 0xCDFB, offset: 0xCDFB, size: 0x8, addend: 0x0, symName: __ZNSt3__19allocatorI7Vector2E8allocateB8ue170006Em, symObjAddr: 0x38C4, symBinAddr: 0x100006ADC, symSize: 0x58 }
  - { offsetInCU: 0xCE2D, offset: 0xCE2D, size: 0x8, addend: 0x0, symName: __ZNSt3__117__compressed_pairIP7Vector2RNS_9allocatorIS1_EEE6secondB8ue170006Ev, symObjAddr: 0x3A00, symBinAddr: 0x100006C18, symSize: 0x28 }
  - { offsetInCU: 0xCE51, offset: 0xCE51, size: 0x8, addend: 0x0, symName: __ZNSt3__122__compressed_pair_elemIRNS_9allocatorI7Vector2EELi1ELb0EE5__getB8ue170006Ev, symObjAddr: 0x3A28, symBinAddr: 0x100006C40, symSize: 0x18 }
  - { offsetInCU: 0xCE75, offset: 0xCE75, size: 0x8, addend: 0x0, symName: __ZNSt3__117__compressed_pairIP7Vector2RNS_9allocatorIS1_EEE5firstB8ue170006Ev, symObjAddr: 0x3A40, symBinAddr: 0x100006C58, symSize: 0x24 }
  - { offsetInCU: 0xCE99, offset: 0xCE99, size: 0x8, addend: 0x0, symName: __ZNKSt3__16vectorI7Vector2NS_9allocatorIS1_EEE17__annotate_deleteB8ue170006Ev, symObjAddr: 0x3A64, symBinAddr: 0x100006C7C, symSize: 0xB8 }
  - { offsetInCU: 0xCEBE, offset: 0xCEBE, size: 0x8, addend: 0x0, symName: __ZNSt3__116reverse_iteratorIP7Vector2EC1B8ue170006ES2_, symObjAddr: 0x3B94, symBinAddr: 0x100006DAC, symSize: 0x34 }
  - { offsetInCU: 0xCEF4, offset: 0xCEF4, size: 0x8, addend: 0x0, symName: __ZNKSt3__116reverse_iteratorIP7Vector2E4baseB8ue170006Ev, symObjAddr: 0x3BC8, symBinAddr: 0x100006DE0, symSize: 0x18 }
  - { offsetInCU: 0xCF18, offset: 0xCF18, size: 0x8, addend: 0x0, symName: __ZNKSt3__16vectorI7Vector2NS_9allocatorIS1_EEE14__annotate_newB8ue170006Em, symObjAddr: 0x3C1C, symBinAddr: 0x100006E34, symSize: 0xAC }
  - { offsetInCU: 0xCF4B, offset: 0xCF4B, size: 0x8, addend: 0x0, symName: __ZNKSt3__16vectorI7Vector2NS_9allocatorIS1_EEE31__annotate_contiguous_containerB8ue170006EPKvS6_S6_S6_, symObjAddr: 0x3CC8, symBinAddr: 0x100006EE0, symSize: 0x20 }
  - { offsetInCU: 0xCF9B, offset: 0xCF9B, size: 0x8, addend: 0x0, symName: __ZNKSt3__16vectorI7Vector2NS_9allocatorIS1_EEE4dataB8ue170006Ev, symObjAddr: 0x3CE8, symBinAddr: 0x100006F00, symSize: 0x28 }
  - { offsetInCU: 0xCFE2, offset: 0xCFE2, size: 0x8, addend: 0x0, symName: __ZNKSt3__111__move_loopINS_17_ClassicAlgPolicyEEclB8ue170006INS_16reverse_iteratorIP7Vector2EES7_S7_EENS_4pairIT_T1_EES9_T0_SA_, symObjAddr: 0x4000, symBinAddr: 0x100007218, symSize: 0xA0 }
  - { offsetInCU: 0xD04C, offset: 0xD04C, size: 0x8, addend: 0x0, symName: __ZNSt3__18_IterOpsINS_17_ClassicAlgPolicyEE11__iter_moveB8ue170006IRNS_16reverse_iteratorIP7Vector2EEEENS_9enable_ifIXsr12is_referenceIDTdeclsr3stdE7declvalIRT_EEEEE5valueEDTclsr3stdE4movedeclsr3stdE7declvalISB_EEEEE4typeEOSA_, symObjAddr: 0x4234, symBinAddr: 0x10000744C, symSize: 0x28 }
  - { offsetInCU: 0xD077, offset: 0xD077, size: 0x8, addend: 0x0, symName: __ZNKSt3__116reverse_iteratorIP7Vector2EdeB8ue170006Ev, symObjAddr: 0x425C, symBinAddr: 0x100007474, symSize: 0x28 }
  - { offsetInCU: 0xD0A9, offset: 0xD0A9, size: 0x8, addend: 0x0, symName: __ZNSt3__116reverse_iteratorIP7Vector2EppB8ue170006Ev, symObjAddr: 0x4284, symBinAddr: 0x10000749C, symSize: 0x20 }
  - { offsetInCU: 0xD0CE, offset: 0xD0CE, size: 0x8, addend: 0x0, symName: __ZNSt3__18_IterOpsINS_17_ClassicAlgPolicyEE25__validate_iter_referenceB8ue170006IRNS_16reverse_iteratorIP7Vector2EEEEvv, symObjAddr: 0x42A4, symBinAddr: 0x1000074BC, symSize: 0x4 }
  - { offsetInCU: 0xD0EC, offset: 0xD0EC, size: 0x8, addend: 0x0, symName: __ZNSt3__118__unwrap_iter_implINS_16reverse_iteratorIP7Vector2EELb0EE8__unwrapB8ue170006ES4_, symObjAddr: 0x42A8, symBinAddr: 0x1000074C0, symSize: 0x24 }
  - { offsetInCU: 0xD114, offset: 0xD114, size: 0x8, addend: 0x0, symName: __ZNSt3__14pairINS_16reverse_iteratorIP7Vector2EES4_EC1B8ue170006IS4_S4_LPv0EEEOT_OT0_, symObjAddr: 0x42CC, symBinAddr: 0x1000074E4, symSize: 0x3C }
  - { offsetInCU: 0xD171, offset: 0xD171, size: 0x8, addend: 0x0, symName: __ZNSt3__14pairINS_16reverse_iteratorIP7Vector2EES4_EC2B8ue170006IS4_S4_LPv0EEEOT_OT0_, symObjAddr: 0x4308, symBinAddr: 0x100007520, symSize: 0x34 }
  - { offsetInCU: 0xD1CE, offset: 0xD1CE, size: 0x8, addend: 0x0, symName: __ZNSt3__118__unwrap_iter_implINS_16reverse_iteratorIP7Vector2EELb0EE8__rewrapB8ue170006ES4_S4_, symObjAddr: 0x433C, symBinAddr: 0x100007554, symSize: 0x2C }
  - { offsetInCU: 0xD1FC, offset: 0xD1FC, size: 0x8, addend: 0x0, symName: __ZNSt3__116reverse_iteratorIP7Vector2EC2B8ue170006ES2_, symObjAddr: 0x4368, symBinAddr: 0x100007580, symSize: 0x28 }
  - { offsetInCU: 0xD233, offset: 0xD233, size: 0x8, addend: 0x0, symName: __ZNSt3__114__split_bufferI7Vector2RNS_9allocatorIS1_EEED2Ev, symObjAddr: 0x4390, symBinAddr: 0x1000075A8, symSize: 0x8C }
  - { offsetInCU: 0xD25D, offset: 0xD25D, size: 0x8, addend: 0x0, symName: __ZNSt3__114__split_bufferI7Vector2RNS_9allocatorIS1_EEE5clearB8ue170006Ev, symObjAddr: 0x441C, symBinAddr: 0x100007634, symSize: 0x28 }
  - { offsetInCU: 0xD282, offset: 0xD282, size: 0x8, addend: 0x0, symName: __ZNSt3__116allocator_traitsINS_9allocatorI7Vector2EEE10deallocateB8ue170006ERS3_PS2_m, symObjAddr: 0x4444, symBinAddr: 0x10000765C, symSize: 0x34 }
  - { offsetInCU: 0xD2C3, offset: 0xD2C3, size: 0x8, addend: 0x0, symName: __ZNKSt3__114__split_bufferI7Vector2RNS_9allocatorIS1_EEE8capacityB8ue170006Ev, symObjAddr: 0x4478, symBinAddr: 0x100007690, symSize: 0x40 }
  - { offsetInCU: 0xD2E7, offset: 0xD2E7, size: 0x8, addend: 0x0, symName: __ZNSt3__114__split_bufferI7Vector2RNS_9allocatorIS1_EEE17__destruct_at_endB8ue170006EPS1_, symObjAddr: 0x44B8, symBinAddr: 0x1000076D0, symSize: 0x2C }
  - { offsetInCU: 0xD319, offset: 0xD319, size: 0x8, addend: 0x0, symName: __ZNSt3__114__split_bufferI7Vector2RNS_9allocatorIS1_EEE17__destruct_at_endB8ue170006EPS1_NS_17integral_constantIbLb0EEE, symObjAddr: 0x44E4, symBinAddr: 0x1000076FC, symSize: 0x80 }
  - { offsetInCU: 0xD359, offset: 0xD359, size: 0x8, addend: 0x0, symName: __ZNSt3__116allocator_traitsINS_9allocatorI7Vector2EEE7destroyB8ue170006IS2_vEEvRS3_PT_, symObjAddr: 0x4564, symBinAddr: 0x10000777C, symSize: 0x2C }
  - { offsetInCU: 0xD395, offset: 0xD395, size: 0x8, addend: 0x0, symName: __ZNSt3__19allocatorI7Vector2E7destroyB8ue170006EPS1_, symObjAddr: 0x4590, symBinAddr: 0x1000077A8, symSize: 0x14 }
  - { offsetInCU: 0xD3C7, offset: 0xD3C7, size: 0x8, addend: 0x0, symName: __ZNSt3__19allocatorI7Vector2E10deallocateB8ue170006EPS1_m, symObjAddr: 0x45A4, symBinAddr: 0x1000077BC, symSize: 0x40 }
  - { offsetInCU: 0xD407, offset: 0xD407, size: 0x8, addend: 0x0, symName: __ZNKSt3__114__split_bufferI7Vector2RNS_9allocatorIS1_EEE9__end_capB8ue170006Ev, symObjAddr: 0x45E4, symBinAddr: 0x1000077FC, symSize: 0x28 }
  - { offsetInCU: 0xD42B, offset: 0xD42B, size: 0x8, addend: 0x0, symName: __ZNKSt3__117__compressed_pairIP7Vector2RNS_9allocatorIS1_EEE5firstB8ue170006Ev, symObjAddr: 0x460C, symBinAddr: 0x100007824, symSize: 0x24 }
  - { offsetInCU: 0xD44F, offset: 0xD44F, size: 0x8, addend: 0x0, symName: __ZNSt3__16vectorI7Vector2NS_9allocatorIS1_EEE22__construct_one_at_endB8ue170006IJRKS1_EEEvDpOT_, symObjAddr: 0x4630, symBinAddr: 0x100007848, symSize: 0x90 }
  - { offsetInCU: 0xD49C, offset: 0xD49C, size: 0x8, addend: 0x0, symName: __ZNSt3__16vectorI7Vector2NS_9allocatorIS1_EEE21__push_back_slow_pathIRKS1_EEvOT_, symObjAddr: 0x46C0, symBinAddr: 0x1000078D8, symSize: 0xD8 }
  - { offsetInCU: 0xD4F9, offset: 0xD4F9, size: 0x8, addend: 0x0, symName: __ZNSt3__116allocator_traitsINS_9allocatorI7Vector2EEE9constructB8ue170006IS2_JRKS2_EvEEvRS3_PT_DpOT0_, symObjAddr: 0x4798, symBinAddr: 0x1000079B0, symSize: 0x34 }
  - { offsetInCU: 0xD54F, offset: 0xD54F, size: 0x8, addend: 0x0, symName: __ZNSt3__19allocatorI7Vector2E9constructB8ue170006IS1_JRKS1_EEEvPT_DpOT0_, symObjAddr: 0x47CC, symBinAddr: 0x1000079E4, symSize: 0x28 }
  - { offsetInCU: 0xD5A3, offset: 0xD5A3, size: 0x8, addend: 0x0, symName: __ZNSt3__16vectorINS0_I7Vector2NS_9allocatorIS1_EEEENS2_IS4_EEE9__end_capB8ue170006Ev, symObjAddr: 0x47F4, symBinAddr: 0x100007A0C, symSize: 0x28 }
  - { offsetInCU: 0xD5C7, offset: 0xD5C7, size: 0x8, addend: 0x0, symName: __ZNSt3__16vectorINS0_I7Vector2NS_9allocatorIS1_EEEENS2_IS4_EEE22__construct_one_at_endB8ue170006IJRKS4_EEEvDpOT_, symObjAddr: 0x481C, symBinAddr: 0x100007A34, symSize: 0x90 }
  - { offsetInCU: 0xD614, offset: 0xD614, size: 0x8, addend: 0x0, symName: __ZNSt3__16vectorINS0_I7Vector2NS_9allocatorIS1_EEEENS2_IS4_EEE21__push_back_slow_pathIRKS4_EEvOT_, symObjAddr: 0x48AC, symBinAddr: 0x100007AC4, symSize: 0xD8 }
  - { offsetInCU: 0xD670, offset: 0xD670, size: 0x8, addend: 0x0, symName: __ZNSt3__117__compressed_pairIPNS_6vectorI7Vector2NS_9allocatorIS2_EEEENS3_IS5_EEE5firstB8ue170006Ev, symObjAddr: 0x4984, symBinAddr: 0x100007B9C, symSize: 0x24 }
  - { offsetInCU: 0xD694, offset: 0xD694, size: 0x8, addend: 0x0, symName: __ZNSt3__122__compressed_pair_elemIPNS_6vectorI7Vector2NS_9allocatorIS2_EEEELi0ELb0EE5__getB8ue170006Ev, symObjAddr: 0x49A8, symBinAddr: 0x100007BC0, symSize: 0x14 }
  - { offsetInCU: 0xD6D2, offset: 0xD6D2, size: 0x8, addend: 0x0, symName: __ZNSt3__16vectorINS0_I7Vector2NS_9allocatorIS1_EEEENS2_IS4_EEE21_ConstructTransactionC1B8ue170006ERS6_m, symObjAddr: 0x49BC, symBinAddr: 0x100007BD4, symSize: 0x3C }
  - { offsetInCU: 0xD719, offset: 0xD719, size: 0x8, addend: 0x0, symName: __ZNSt3__116allocator_traitsINS_9allocatorINS_6vectorI7Vector2NS1_IS3_EEEEEEE9constructB8ue170006IS5_JRKS5_EvEEvRS6_PT_DpOT0_, symObjAddr: 0x49F8, symBinAddr: 0x100007C10, symSize: 0x34 }
  - { offsetInCU: 0xD76F, offset: 0xD76F, size: 0x8, addend: 0x0, symName: __ZNSt3__16vectorINS0_I7Vector2NS_9allocatorIS1_EEEENS2_IS4_EEE7__allocB8ue170006Ev, symObjAddr: 0x4A2C, symBinAddr: 0x100007C44, symSize: 0x28 }
  - { offsetInCU: 0xD794, offset: 0xD794, size: 0x8, addend: 0x0, symName: __ZNSt3__16vectorINS0_I7Vector2NS_9allocatorIS1_EEEENS2_IS4_EEE21_ConstructTransactionD1B8ue170006Ev, symObjAddr: 0x4A68, symBinAddr: 0x100007C80, symSize: 0x2C }
  - { offsetInCU: 0xD7BD, offset: 0xD7BD, size: 0x8, addend: 0x0, symName: __ZNSt3__16vectorINS0_I7Vector2NS_9allocatorIS1_EEEENS2_IS4_EEE21_ConstructTransactionC2B8ue170006ERS6_m, symObjAddr: 0x4A94, symBinAddr: 0x100007CAC, symSize: 0x4C }
  - { offsetInCU: 0xD803, offset: 0xD803, size: 0x8, addend: 0x0, symName: __ZNSt3__19allocatorINS_6vectorI7Vector2NS0_IS2_EEEEE9constructB8ue170006IS4_JRKS4_EEEvPT_DpOT0_, symObjAddr: 0x4AE0, symBinAddr: 0x100007CF8, symSize: 0x30 }
  - { offsetInCU: 0xD858, offset: 0xD858, size: 0x8, addend: 0x0, symName: __ZNSt3__16vectorI7Vector2NS_9allocatorIS1_EEEC1ERKS4_, symObjAddr: 0x4B10, symBinAddr: 0x100007D28, symSize: 0x34 }
  - { offsetInCU: 0xD892, offset: 0xD892, size: 0x8, addend: 0x0, symName: __ZNSt3__16vectorI7Vector2NS_9allocatorIS1_EEEC2ERKS4_, symObjAddr: 0x4B44, symBinAddr: 0x100007D5C, symSize: 0x94 }
  - { offsetInCU: 0xD8CC, offset: 0xD8CC, size: 0x8, addend: 0x0, symName: __ZNSt3__116allocator_traitsINS_9allocatorI7Vector2EEE37select_on_container_copy_constructionB8ue170006IS3_vvEES3_RKS3_, symObjAddr: 0x4BD8, symBinAddr: 0x100007DF0, symSize: 0x10 }
  - { offsetInCU: 0xD900, offset: 0xD900, size: 0x8, addend: 0x0, symName: __ZNSt3__117__compressed_pairIP7Vector2NS_9allocatorIS1_EEEC1B8ue170006IDnS4_EEOT_OT0_, symObjAddr: 0x4BE8, symBinAddr: 0x100007E00, symSize: 0x3C }
  - { offsetInCU: 0xD956, offset: 0xD956, size: 0x8, addend: 0x0, symName: __ZNSt3__16vectorI7Vector2NS_9allocatorIS1_EEE16__init_with_sizeB8ue170006IPS1_S6_EEvT_T0_m, symObjAddr: 0x4C24, symBinAddr: 0x100007E3C, symSize: 0xB8 }
  - { offsetInCU: 0xD9C9, offset: 0xD9C9, size: 0x8, addend: 0x0, symName: __ZNSt3__117__compressed_pairIP7Vector2NS_9allocatorIS1_EEEC2B8ue170006IDnS4_EEOT_OT0_, symObjAddr: 0x4CDC, symBinAddr: 0x100007EF4, symSize: 0x44 }
  - { offsetInCU: 0xDA20, offset: 0xDA20, size: 0x8, addend: 0x0, symName: __ZNSt3__122__compressed_pair_elemINS_9allocatorI7Vector2EELi1ELb1EEC2B8ue170006IS3_vEEOT_, symObjAddr: 0x4D20, symBinAddr: 0x100007F38, symSize: 0x18 }
  - { offsetInCU: 0xDA61, offset: 0xDA61, size: 0x8, addend: 0x0, symName: __ZNSt3__16vectorI7Vector2NS_9allocatorIS1_EEE16__destroy_vectorC1B8ue170006ERS4_, symObjAddr: 0x4D78, symBinAddr: 0x100007F90, symSize: 0x34 }
  - { offsetInCU: 0xDA98, offset: 0xDA98, size: 0x8, addend: 0x0, symName: __ZNSt3__16vectorI7Vector2NS_9allocatorIS1_EEE11__vallocateB8ue170006Em, symObjAddr: 0x4DAC, symBinAddr: 0x100007FC4, symSize: 0xAC }
  - { offsetInCU: 0xDADA, offset: 0xDADA, size: 0x8, addend: 0x0, symName: __ZNSt3__16vectorI7Vector2NS_9allocatorIS1_EEE18__construct_at_endIPS1_S6_EEvT_T0_m, symObjAddr: 0x4E58, symBinAddr: 0x100008070, symSize: 0x8C }
  - { offsetInCU: 0xDB4E, offset: 0xDB4E, size: 0x8, addend: 0x0, symName: __ZNSt3__128__exception_guard_exceptionsINS_6vectorI7Vector2NS_9allocatorIS2_EEE16__destroy_vectorEE10__completeB8ue170006Ev, symObjAddr: 0x4EE4, symBinAddr: 0x1000080FC, symSize: 0x1C }
  - { offsetInCU: 0xDB73, offset: 0xDB73, size: 0x8, addend: 0x0, symName: __ZNSt3__128__exception_guard_exceptionsINS_6vectorI7Vector2NS_9allocatorIS2_EEE16__destroy_vectorEED1B8ue170006Ev, symObjAddr: 0x4F00, symBinAddr: 0x100008118, symSize: 0x2C }
  - { offsetInCU: 0xDB9C, offset: 0xDB9C, size: 0x8, addend: 0x0, symName: __ZNSt3__128__exception_guard_exceptionsINS_6vectorI7Vector2NS_9allocatorIS2_EEE16__destroy_vectorEEC1B8ue170006ES6_, symObjAddr: 0x4F2C, symBinAddr: 0x100008144, symSize: 0x34 }
  - { offsetInCU: 0xDBD3, offset: 0xDBD3, size: 0x8, addend: 0x0, symName: __ZNSt3__128__exception_guard_exceptionsINS_6vectorI7Vector2NS_9allocatorIS2_EEE16__destroy_vectorEEC2B8ue170006ES6_, symObjAddr: 0x4F60, symBinAddr: 0x100008178, symSize: 0x24 }
  - { offsetInCU: 0xDC0A, offset: 0xDC0A, size: 0x8, addend: 0x0, symName: __ZNSt3__16vectorI7Vector2NS_9allocatorIS1_EEE16__destroy_vectorC2B8ue170006ERS4_, symObjAddr: 0x4F84, symBinAddr: 0x10000819C, symSize: 0x20 }
  - { offsetInCU: 0xDC60, offset: 0xDC60, size: 0x8, addend: 0x0, symName: __ZNSt3__14pairIP7Vector2S2_EC1B8ue170006IS2_S2_LPv0EEEOT_OT0_, symObjAddr: 0x5154, symBinAddr: 0x10000836C, symSize: 0x3C }
  - { offsetInCU: 0xDCBD, offset: 0xDCBD, size: 0x8, addend: 0x0, symName: __ZNSt3__14pairIP7Vector2S2_EC2B8ue170006IS2_S2_LPv0EEEOT_OT0_, symObjAddr: 0x5190, symBinAddr: 0x1000083A8, symSize: 0x34 }
  - { offsetInCU: 0xDD23, offset: 0xDD23, size: 0x8, addend: 0x0, symName: __ZNKSt3__114__copy_trivialclB8ue170006I7Vector2S2_Li0EEENS_4pairIPT_PT0_EES5_S5_S7_, symObjAddr: 0x5340, symBinAddr: 0x100008558, symSize: 0x48 }
  - { offsetInCU: 0xDD8A, offset: 0xDD8A, size: 0x8, addend: 0x0, symName: __ZNSt3__14pairIP7Vector2S2_EC1B8ue170006IRS2_S2_LPv0EEEOT_OT0_, symObjAddr: 0x54D0, symBinAddr: 0x1000086E8, symSize: 0x3C }
  - { offsetInCU: 0xDDE7, offset: 0xDDE7, size: 0x8, addend: 0x0, symName: __ZNSt3__14pairIP7Vector2S2_EC2B8ue170006IRS2_S2_LPv0EEEOT_OT0_, symObjAddr: 0x550C, symBinAddr: 0x100008724, symSize: 0x34 }
  - { offsetInCU: 0xDE44, offset: 0xDE44, size: 0x8, addend: 0x0, symName: __ZNSt3__118__unwrap_iter_implIP7Vector2Lb1EE8__unwrapB8ue170006ES2_, symObjAddr: 0x5540, symBinAddr: 0x100008758, symSize: 0x24 }
  - { offsetInCU: 0xDE67, offset: 0xDE67, size: 0x8, addend: 0x0, symName: __ZNSt3__118__unwrap_iter_implIP7Vector2Lb1EE8__rewrapB8ue170006ES2_S2_, symObjAddr: 0x5564, symBinAddr: 0x10000877C, symSize: 0x50 }
  - { offsetInCU: 0xDE98, offset: 0xDE98, size: 0x8, addend: 0x0, symName: __ZNSt3__128__exception_guard_exceptionsINS_6vectorI7Vector2NS_9allocatorIS2_EEE16__destroy_vectorEED2B8ue170006Ev, symObjAddr: 0x55B4, symBinAddr: 0x1000087CC, symSize: 0x50 }
  - { offsetInCU: 0xDEC0, offset: 0xDEC0, size: 0x8, addend: 0x0, symName: __ZNSt3__16vectorI7Vector2NS_9allocatorIS1_EEE16__destroy_vectorclB8ue170006Ev, symObjAddr: 0x5604, symBinAddr: 0x10000881C, symSize: 0x90 }
  - { offsetInCU: 0xDEE4, offset: 0xDEE4, size: 0x8, addend: 0x0, symName: __ZNSt3__16vectorI7Vector2NS_9allocatorIS1_EEE7__clearB8ue170006Ev, symObjAddr: 0x5694, symBinAddr: 0x1000088AC, symSize: 0x28 }
  - { offsetInCU: 0xDF08, offset: 0xDF08, size: 0x8, addend: 0x0, symName: __ZNSt3__16vectorI7Vector2NS_9allocatorIS1_EEE22__base_destruct_at_endB8ue170006EPS1_, symObjAddr: 0x56BC, symBinAddr: 0x1000088D4, symSize: 0x8C }
  - { offsetInCU: 0xDF4A, offset: 0xDF4A, size: 0x8, addend: 0x0, symName: __ZNSt3__117__compressed_pairIPNS_6vectorI7Vector2NS_9allocatorIS2_EEEENS3_IS5_EEE6secondB8ue170006Ev, symObjAddr: 0x5748, symBinAddr: 0x100008960, symSize: 0x24 }
  - { offsetInCU: 0xDF6E, offset: 0xDF6E, size: 0x8, addend: 0x0, symName: __ZNSt3__122__compressed_pair_elemINS_9allocatorINS_6vectorI7Vector2NS1_IS3_EEEEEELi1ELb1EE5__getB8ue170006Ev, symObjAddr: 0x576C, symBinAddr: 0x100008984, symSize: 0x14 }
  - { offsetInCU: 0xDF93, offset: 0xDF93, size: 0x8, addend: 0x0, symName: __ZNSt3__16vectorINS0_I7Vector2NS_9allocatorIS1_EEEENS2_IS4_EEE21_ConstructTransactionD2B8ue170006Ev, symObjAddr: 0x5780, symBinAddr: 0x100008998, symSize: 0x20 }
  - { offsetInCU: 0xDFBB, offset: 0xDFBB, size: 0x8, addend: 0x0, symName: __ZNKSt3__16vectorINS0_I7Vector2NS_9allocatorIS1_EEEENS2_IS4_EEE11__recommendB8ue170006Em, symObjAddr: 0x57A0, symBinAddr: 0x1000089B8, symSize: 0xB4 }
  - { offsetInCU: 0xE00E, offset: 0xE00E, size: 0x8, addend: 0x0, symName: __ZNKSt3__16vectorINS0_I7Vector2NS_9allocatorIS1_EEEENS2_IS4_EEE4sizeB8ue170006Ev, symObjAddr: 0x5854, symBinAddr: 0x100008A6C, symSize: 0x28 }
  - { offsetInCU: 0xE033, offset: 0xE033, size: 0x8, addend: 0x0, symName: __ZNSt3__114__split_bufferINS_6vectorI7Vector2NS_9allocatorIS2_EEEERNS3_IS5_EEEC1EmmS7_, symObjAddr: 0x587C, symBinAddr: 0x100008A94, symSize: 0x44 }
  - { offsetInCU: 0xE088, offset: 0xE088, size: 0x8, addend: 0x0, symName: __ZNSt3__114__split_bufferINS_6vectorI7Vector2NS_9allocatorIS2_EEEERNS3_IS5_EEED1Ev, symObjAddr: 0x59D0, symBinAddr: 0x100008BE8, symSize: 0x2C }
  - { offsetInCU: 0xE0B2, offset: 0xE0B2, size: 0x8, addend: 0x0, symName: __ZNKSt3__16vectorINS0_I7Vector2NS_9allocatorIS1_EEEENS2_IS4_EEE8max_sizeEv, symObjAddr: 0x59FC, symBinAddr: 0x100008C14, symSize: 0x60 }
  - { offsetInCU: 0xE0D8, offset: 0xE0D8, size: 0x8, addend: 0x0, symName: __ZNKSt3__16vectorINS0_I7Vector2NS_9allocatorIS1_EEEENS2_IS4_EEE20__throw_length_errorB8ue170006Ev, symObjAddr: 0x5A5C, symBinAddr: 0x100008C74, symSize: 0x1C }
  - { offsetInCU: 0xE0FC, offset: 0xE0FC, size: 0x8, addend: 0x0, symName: __ZNKSt3__16vectorINS0_I7Vector2NS_9allocatorIS1_EEEENS2_IS4_EEE8capacityB8ue170006Ev, symObjAddr: 0x5A78, symBinAddr: 0x100008C90, symSize: 0x40 }
  - { offsetInCU: 0xE12B, offset: 0xE12B, size: 0x8, addend: 0x0, symName: __ZNSt3__116allocator_traitsINS_9allocatorINS_6vectorI7Vector2NS1_IS3_EEEEEEE8max_sizeB8ue170006IS6_vEEmRKS6_, symObjAddr: 0x5AB8, symBinAddr: 0x100008CD0, symSize: 0x24 }
  - { offsetInCU: 0xE158, offset: 0xE158, size: 0x8, addend: 0x0, symName: __ZNKSt3__16vectorINS0_I7Vector2NS_9allocatorIS1_EEEENS2_IS4_EEE7__allocB8ue170006Ev, symObjAddr: 0x5ADC, symBinAddr: 0x100008CF4, symSize: 0x28 }
  - { offsetInCU: 0xE17C, offset: 0xE17C, size: 0x8, addend: 0x0, symName: __ZNKSt3__19allocatorINS_6vectorI7Vector2NS0_IS2_EEEEE8max_sizeB8ue170006Ev, symObjAddr: 0x5B04, symBinAddr: 0x100008D1C, symSize: 0x18 }
  - { offsetInCU: 0xE1A0, offset: 0xE1A0, size: 0x8, addend: 0x0, symName: __ZNKSt3__117__compressed_pairIPNS_6vectorI7Vector2NS_9allocatorIS2_EEEENS3_IS5_EEE6secondB8ue170006Ev, symObjAddr: 0x5B1C, symBinAddr: 0x100008D34, symSize: 0x24 }
  - { offsetInCU: 0xE1C4, offset: 0xE1C4, size: 0x8, addend: 0x0, symName: __ZNKSt3__122__compressed_pair_elemINS_9allocatorINS_6vectorI7Vector2NS1_IS3_EEEEEELi1ELb1EE5__getB8ue170006Ev, symObjAddr: 0x5B40, symBinAddr: 0x100008D58, symSize: 0x14 }
  - { offsetInCU: 0xE1E8, offset: 0xE1E8, size: 0x8, addend: 0x0, symName: __ZNKSt3__16vectorINS0_I7Vector2NS_9allocatorIS1_EEEENS2_IS4_EEE9__end_capB8ue170006Ev, symObjAddr: 0x5B54, symBinAddr: 0x100008D6C, symSize: 0x28 }
  - { offsetInCU: 0xE20C, offset: 0xE20C, size: 0x8, addend: 0x0, symName: __ZNKSt3__117__compressed_pairIPNS_6vectorI7Vector2NS_9allocatorIS2_EEEENS3_IS5_EEE5firstB8ue170006Ev, symObjAddr: 0x5B7C, symBinAddr: 0x100008D94, symSize: 0x24 }
  - { offsetInCU: 0xE230, offset: 0xE230, size: 0x8, addend: 0x0, symName: __ZNKSt3__122__compressed_pair_elemIPNS_6vectorI7Vector2NS_9allocatorIS2_EEEELi0ELb0EE5__getB8ue170006Ev, symObjAddr: 0x5BA0, symBinAddr: 0x100008DB8, symSize: 0x14 }
  - { offsetInCU: 0xE255, offset: 0xE255, size: 0x8, addend: 0x0, symName: __ZNSt3__114__split_bufferINS_6vectorI7Vector2NS_9allocatorIS2_EEEERNS3_IS5_EEEC2EmmS7_, symObjAddr: 0x5BB4, symBinAddr: 0x100008DCC, symSize: 0xE0 }
  - { offsetInCU: 0xE2C7, offset: 0xE2C7, size: 0x8, addend: 0x0, symName: __ZNSt3__117__compressed_pairIPNS_6vectorI7Vector2NS_9allocatorIS2_EEEERNS3_IS5_EEEC1B8ue170006IDnS8_EEOT_OT0_, symObjAddr: 0x5C94, symBinAddr: 0x100008EAC, symSize: 0x3C }
  - { offsetInCU: 0xE31D, offset: 0xE31D, size: 0x8, addend: 0x0, symName: __ZNSt3__114__split_bufferINS_6vectorI7Vector2NS_9allocatorIS2_EEEERNS3_IS5_EEE7__allocB8ue170006Ev, symObjAddr: 0x5D10, symBinAddr: 0x100008F28, symSize: 0x28 }
  - { offsetInCU: 0xE341, offset: 0xE341, size: 0x8, addend: 0x0, symName: __ZNSt3__114__split_bufferINS_6vectorI7Vector2NS_9allocatorIS2_EEEERNS3_IS5_EEE9__end_capB8ue170006Ev, symObjAddr: 0x5D38, symBinAddr: 0x100008F50, symSize: 0x28 }
  - { offsetInCU: 0xE366, offset: 0xE366, size: 0x8, addend: 0x0, symName: __ZNSt3__117__compressed_pairIPNS_6vectorI7Vector2NS_9allocatorIS2_EEEERNS3_IS5_EEEC2B8ue170006IDnS8_EEOT_OT0_, symObjAddr: 0x5D60, symBinAddr: 0x100008F78, symSize: 0x48 }
  - { offsetInCU: 0xE3BD, offset: 0xE3BD, size: 0x8, addend: 0x0, symName: __ZNSt3__122__compressed_pair_elemIPNS_6vectorI7Vector2NS_9allocatorIS2_EEEELi0ELb0EEC2B8ue170006IDnvEEOT_, symObjAddr: 0x5DA8, symBinAddr: 0x100008FC0, symSize: 0x1C }
  - { offsetInCU: 0xE3FE, offset: 0xE3FE, size: 0x8, addend: 0x0, symName: __ZNSt3__122__compressed_pair_elemIRNS_9allocatorINS_6vectorI7Vector2NS1_IS3_EEEEEELi1ELb0EEC2B8ue170006IS7_vEEOT_, symObjAddr: 0x5DC4, symBinAddr: 0x100008FDC, symSize: 0x20 }
  - { offsetInCU: 0xE43E, offset: 0xE43E, size: 0x8, addend: 0x0, symName: __ZNSt3__19allocatorINS_6vectorI7Vector2NS0_IS2_EEEEE8allocateB8ue170006Em, symObjAddr: 0x5DE4, symBinAddr: 0x100008FFC, symSize: 0x5C }
  - { offsetInCU: 0xE470, offset: 0xE470, size: 0x8, addend: 0x0, symName: __ZNSt3__117__compressed_pairIPNS_6vectorI7Vector2NS_9allocatorIS2_EEEERNS3_IS5_EEE6secondB8ue170006Ev, symObjAddr: 0x5E40, symBinAddr: 0x100009058, symSize: 0x28 }
  - { offsetInCU: 0xE494, offset: 0xE494, size: 0x8, addend: 0x0, symName: __ZNSt3__122__compressed_pair_elemIRNS_9allocatorINS_6vectorI7Vector2NS1_IS3_EEEEEELi1ELb0EE5__getB8ue170006Ev, symObjAddr: 0x5E68, symBinAddr: 0x100009080, symSize: 0x18 }
  - { offsetInCU: 0xE4B8, offset: 0xE4B8, size: 0x8, addend: 0x0, symName: __ZNSt3__117__compressed_pairIPNS_6vectorI7Vector2NS_9allocatorIS2_EEEERNS3_IS5_EEE5firstB8ue170006Ev, symObjAddr: 0x5E80, symBinAddr: 0x100009098, symSize: 0x24 }
  - { offsetInCU: 0xE4DC, offset: 0xE4DC, size: 0x8, addend: 0x0, symName: __ZNKSt3__16vectorINS0_I7Vector2NS_9allocatorIS1_EEEENS2_IS4_EEE17__annotate_deleteB8ue170006Ev, symObjAddr: 0x5EA4, symBinAddr: 0x1000090BC, symSize: 0xD4 }
  - { offsetInCU: 0xE501, offset: 0xE501, size: 0x8, addend: 0x0, symName: __ZNSt3__116reverse_iteratorIPNS_6vectorI7Vector2NS_9allocatorIS2_EEEEEC1B8ue170006ES6_, symObjAddr: 0x60A4, symBinAddr: 0x1000092BC, symSize: 0x34 }
  - { offsetInCU: 0xE537, offset: 0xE537, size: 0x8, addend: 0x0, symName: __ZNKSt3__116reverse_iteratorIPNS_6vectorI7Vector2NS_9allocatorIS2_EEEEE4baseB8ue170006Ev, symObjAddr: 0x60D8, symBinAddr: 0x1000092F0, symSize: 0x18 }
  - { offsetInCU: 0xE55B, offset: 0xE55B, size: 0x8, addend: 0x0, symName: __ZNKSt3__16vectorINS0_I7Vector2NS_9allocatorIS1_EEEENS2_IS4_EEE14__annotate_newB8ue170006Em, symObjAddr: 0x612C, symBinAddr: 0x100009344, symSize: 0xC8 }
  - { offsetInCU: 0xE58E, offset: 0xE58E, size: 0x8, addend: 0x0, symName: __ZNKSt3__16vectorINS0_I7Vector2NS_9allocatorIS1_EEEENS2_IS4_EEE31__annotate_contiguous_containerB8ue170006EPKvS8_S8_S8_, symObjAddr: 0x61F4, symBinAddr: 0x10000940C, symSize: 0x20 }
  - { offsetInCU: 0xE5DE, offset: 0xE5DE, size: 0x8, addend: 0x0, symName: __ZNKSt3__16vectorINS0_I7Vector2NS_9allocatorIS1_EEEENS2_IS4_EEE4dataB8ue170006Ev, symObjAddr: 0x6214, symBinAddr: 0x10000942C, symSize: 0x28 }
  - { offsetInCU: 0xE603, offset: 0xE603, size: 0x8, addend: 0x0, symName: __ZNSt3__129_AllocatorDestroyRangeReverseINS_9allocatorINS_6vectorI7Vector2NS1_IS3_EEEEEENS_16reverse_iteratorIPS5_EEEC1B8ue170006ERS6_RS9_SC_, symObjAddr: 0x6288, symBinAddr: 0x1000094A0, symSize: 0x44 }
  - { offsetInCU: 0xE659, offset: 0xE659, size: 0x8, addend: 0x0, symName: __ZNSt3__116allocator_traitsINS_9allocatorINS_6vectorI7Vector2NS1_IS3_EEEEEEE9constructB8ue170006IS5_JS5_EvEEvRS6_PT_DpOT0_, symObjAddr: 0x6314, symBinAddr: 0x10000952C, symSize: 0x34 }
  - { offsetInCU: 0xE6AF, offset: 0xE6AF, size: 0x8, addend: 0x0, symName: __ZNKSt3__116reverse_iteratorIPNS_6vectorI7Vector2NS_9allocatorIS2_EEEEEdeB8ue170006Ev, symObjAddr: 0x636C, symBinAddr: 0x100009584, symSize: 0x28 }
  - { offsetInCU: 0xE6E1, offset: 0xE6E1, size: 0x8, addend: 0x0, symName: __ZNSt3__116reverse_iteratorIPNS_6vectorI7Vector2NS_9allocatorIS2_EEEEEppB8ue170006Ev, symObjAddr: 0x6394, symBinAddr: 0x1000095AC, symSize: 0x20 }
  - { offsetInCU: 0xE705, offset: 0xE705, size: 0x8, addend: 0x0, symName: __ZNSt3__128__exception_guard_exceptionsINS_29_AllocatorDestroyRangeReverseINS_9allocatorINS_6vectorI7Vector2NS2_IS4_EEEEEENS_16reverse_iteratorIPS6_EEEEE10__completeB8ue170006Ev, symObjAddr: 0x63B4, symBinAddr: 0x1000095CC, symSize: 0x1C }
  - { offsetInCU: 0xE72A, offset: 0xE72A, size: 0x8, addend: 0x0, symName: __ZNSt3__128__exception_guard_exceptionsINS_29_AllocatorDestroyRangeReverseINS_9allocatorINS_6vectorI7Vector2NS2_IS4_EEEEEENS_16reverse_iteratorIPS6_EEEEED1B8ue170006Ev, symObjAddr: 0x63D0, symBinAddr: 0x1000095E8, symSize: 0x2C }
  - { offsetInCU: 0xE753, offset: 0xE753, size: 0x8, addend: 0x0, symName: __ZNSt3__128__exception_guard_exceptionsINS_29_AllocatorDestroyRangeReverseINS_9allocatorINS_6vectorI7Vector2NS2_IS4_EEEEEENS_16reverse_iteratorIPS6_EEEEEC1B8ue170006ESB_, symObjAddr: 0x63FC, symBinAddr: 0x100009614, symSize: 0x34 }
  - { offsetInCU: 0xE78B, offset: 0xE78B, size: 0x8, addend: 0x0, symName: __ZNSt3__128__exception_guard_exceptionsINS_29_AllocatorDestroyRangeReverseINS_9allocatorINS_6vectorI7Vector2NS2_IS4_EEEEEENS_16reverse_iteratorIPS6_EEEEEC2B8ue170006ESB_, symObjAddr: 0x6430, symBinAddr: 0x100009648, symSize: 0x30 }
  - { offsetInCU: 0xE7C3, offset: 0xE7C3, size: 0x8, addend: 0x0, symName: __ZNSt3__129_AllocatorDestroyRangeReverseINS_9allocatorINS_6vectorI7Vector2NS1_IS3_EEEEEENS_16reverse_iteratorIPS5_EEEC2B8ue170006ERS6_RS9_SC_, symObjAddr: 0x6460, symBinAddr: 0x100009678, symSize: 0x38 }
  - { offsetInCU: 0xE818, offset: 0xE818, size: 0x8, addend: 0x0, symName: __ZNSt3__19allocatorINS_6vectorI7Vector2NS0_IS2_EEEEE9constructB8ue170006IS4_JS4_EEEvPT_DpOT0_, symObjAddr: 0x6498, symBinAddr: 0x1000096B0, symSize: 0x30 }
  - { offsetInCU: 0xE86D, offset: 0xE86D, size: 0x8, addend: 0x0, symName: __ZNSt3__16vectorI7Vector2NS_9allocatorIS1_EEEC1B8ue170006EOS4_, symObjAddr: 0x64C8, symBinAddr: 0x1000096E0, symSize: 0x34 }
  - { offsetInCU: 0xE8A7, offset: 0xE8A7, size: 0x8, addend: 0x0, symName: __ZNSt3__16vectorI7Vector2NS_9allocatorIS1_EEEC2B8ue170006EOS4_, symObjAddr: 0x64FC, symBinAddr: 0x100009714, symSize: 0xC4 }
  - { offsetInCU: 0xE8E6, offset: 0xE8E6, size: 0x8, addend: 0x0, symName: __ZNSt3__119__to_address_helperINS_16reverse_iteratorIPNS_6vectorI7Vector2NS_9allocatorIS3_EEEEEEvE6__callB8ue170006ERKS8_, symObjAddr: 0x65C0, symBinAddr: 0x1000097D8, symSize: 0x38 }
  - { offsetInCU: 0xE908, offset: 0xE908, size: 0x8, addend: 0x0, symName: __ZNKSt3__116reverse_iteratorIPNS_6vectorI7Vector2NS_9allocatorIS2_EEEEEptB8ue170006Ev, symObjAddr: 0x65F8, symBinAddr: 0x100009810, symSize: 0x24 }
  - { offsetInCU: 0xE92D, offset: 0xE92D, size: 0x8, addend: 0x0, symName: __ZNSt3__128__exception_guard_exceptionsINS_29_AllocatorDestroyRangeReverseINS_9allocatorINS_6vectorI7Vector2NS2_IS4_EEEEEENS_16reverse_iteratorIPS6_EEEEED2B8ue170006Ev, symObjAddr: 0x661C, symBinAddr: 0x100009834, symSize: 0x50 }
  - { offsetInCU: 0xE955, offset: 0xE955, size: 0x8, addend: 0x0, symName: __ZNKSt3__129_AllocatorDestroyRangeReverseINS_9allocatorINS_6vectorI7Vector2NS1_IS3_EEEEEENS_16reverse_iteratorIPS5_EEEclB8ue170006Ev, symObjAddr: 0x666C, symBinAddr: 0x100009884, symSize: 0xB4 }
  - { offsetInCU: 0xE97B, offset: 0xE97B, size: 0x8, addend: 0x0, symName: __ZNSt3__116reverse_iteratorINS0_IPNS_6vectorI7Vector2NS_9allocatorIS2_EEEEEEEC1B8ue170006ES7_, symObjAddr: 0x6790, symBinAddr: 0x1000099A8, symSize: 0x3C }
  - { offsetInCU: 0xE9B2, offset: 0xE9B2, size: 0x8, addend: 0x0, symName: __ZNSt3__116allocator_traitsINS_9allocatorINS_6vectorI7Vector2NS1_IS3_EEEEEEE7destroyB8ue170006IS5_vEEvRS6_PT_, symObjAddr: 0x682C, symBinAddr: 0x100009A44, symSize: 0x2C }
  - { offsetInCU: 0xE9EE, offset: 0xE9EE, size: 0x8, addend: 0x0, symName: __ZNSt3__116reverse_iteratorINS0_IPNS_6vectorI7Vector2NS_9allocatorIS2_EEEEEEEppB8ue170006Ev, symObjAddr: 0x687C, symBinAddr: 0x100009A94, symSize: 0x30 }
  - { offsetInCU: 0xEA12, offset: 0xEA12, size: 0x8, addend: 0x0, symName: __ZNKSt3__116reverse_iteratorINS0_IPNS_6vectorI7Vector2NS_9allocatorIS2_EEEEEEE4baseB8ue170006Ev, symObjAddr: 0x68AC, symBinAddr: 0x100009AC4, symSize: 0x24 }
  - { offsetInCU: 0xEA36, offset: 0xEA36, size: 0x8, addend: 0x0, symName: __ZNSt3__19allocatorINS_6vectorI7Vector2NS0_IS2_EEEEE7destroyB8ue170006EPS4_, symObjAddr: 0x68D0, symBinAddr: 0x100009AE8, symSize: 0x28 }
  - { offsetInCU: 0xEA69, offset: 0xEA69, size: 0x8, addend: 0x0, symName: __ZNSt3__16vectorI7Vector2NS_9allocatorIS1_EEED1B8ue170006Ev, symObjAddr: 0x68F8, symBinAddr: 0x100009B10, symSize: 0x2C }
  - { offsetInCU: 0xEA92, offset: 0xEA92, size: 0x8, addend: 0x0, symName: __ZNSt3__16vectorI7Vector2NS_9allocatorIS1_EEED2B8ue170006Ev, symObjAddr: 0x6924, symBinAddr: 0x100009B3C, symSize: 0x40 }
  - { offsetInCU: 0xEAC0, offset: 0xEAC0, size: 0x8, addend: 0x0, symName: __ZNSt3__119__to_address_helperINS_16reverse_iteratorINS1_IPNS_6vectorI7Vector2NS_9allocatorIS3_EEEEEEEEvE6__callB8ue170006ERKS9_, symObjAddr: 0x6964, symBinAddr: 0x100009B7C, symSize: 0x38 }
  - { offsetInCU: 0xEAE2, offset: 0xEAE2, size: 0x8, addend: 0x0, symName: __ZNKSt3__116reverse_iteratorINS0_IPNS_6vectorI7Vector2NS_9allocatorIS2_EEEEEEEptB8ue170006Ev, symObjAddr: 0x699C, symBinAddr: 0x100009BB4, symSize: 0x24 }
  - { offsetInCU: 0xEB06, offset: 0xEB06, size: 0x8, addend: 0x0, symName: __ZNKSt3__116reverse_iteratorINS0_IPNS_6vectorI7Vector2NS_9allocatorIS2_EEEEEEEdeB8ue170006Ev, symObjAddr: 0x69C0, symBinAddr: 0x100009BD8, symSize: 0x34 }
  - { offsetInCU: 0xEB38, offset: 0xEB38, size: 0x8, addend: 0x0, symName: __ZNSt3__116reverse_iteratorIPNS_6vectorI7Vector2NS_9allocatorIS2_EEEEEmmB8ue170006Ev, symObjAddr: 0x69F4, symBinAddr: 0x100009C0C, symSize: 0x20 }
  - { offsetInCU: 0xEB5D, offset: 0xEB5D, size: 0x8, addend: 0x0, symName: __ZNSt3__116reverse_iteratorINS0_IPNS_6vectorI7Vector2NS_9allocatorIS2_EEEEEEEC2B8ue170006ES7_, symObjAddr: 0x6A14, symBinAddr: 0x100009C2C, symSize: 0x2C }
  - { offsetInCU: 0xEB94, offset: 0xEB94, size: 0x8, addend: 0x0, symName: __ZNSt3__116reverse_iteratorIPNS_6vectorI7Vector2NS_9allocatorIS2_EEEEEC2B8ue170006ES6_, symObjAddr: 0x6A40, symBinAddr: 0x100009C58, symSize: 0x28 }
  - { offsetInCU: 0xEBCB, offset: 0xEBCB, size: 0x8, addend: 0x0, symName: __ZNSt3__114__split_bufferINS_6vectorI7Vector2NS_9allocatorIS2_EEEERNS3_IS5_EEED2Ev, symObjAddr: 0x6A68, symBinAddr: 0x100009C80, symSize: 0x8C }
  - { offsetInCU: 0xEBF5, offset: 0xEBF5, size: 0x8, addend: 0x0, symName: __ZNSt3__114__split_bufferINS_6vectorI7Vector2NS_9allocatorIS2_EEEERNS3_IS5_EEE5clearB8ue170006Ev, symObjAddr: 0x6AF4, symBinAddr: 0x100009D0C, symSize: 0x28 }
  - { offsetInCU: 0xEC1A, offset: 0xEC1A, size: 0x8, addend: 0x0, symName: __ZNSt3__116allocator_traitsINS_9allocatorINS_6vectorI7Vector2NS1_IS3_EEEEEEE10deallocateB8ue170006ERS6_PS5_m, symObjAddr: 0x6B1C, symBinAddr: 0x100009D34, symSize: 0x34 }
  - { offsetInCU: 0xEC5B, offset: 0xEC5B, size: 0x8, addend: 0x0, symName: __ZNKSt3__114__split_bufferINS_6vectorI7Vector2NS_9allocatorIS2_EEEERNS3_IS5_EEE8capacityB8ue170006Ev, symObjAddr: 0x6B50, symBinAddr: 0x100009D68, symSize: 0x40 }
  - { offsetInCU: 0xEC7F, offset: 0xEC7F, size: 0x8, addend: 0x0, symName: __ZNSt3__114__split_bufferINS_6vectorI7Vector2NS_9allocatorIS2_EEEERNS3_IS5_EEE17__destruct_at_endB8ue170006EPS5_, symObjAddr: 0x6B90, symBinAddr: 0x100009DA8, symSize: 0x2C }
  - { offsetInCU: 0xECB1, offset: 0xECB1, size: 0x8, addend: 0x0, symName: __ZNSt3__114__split_bufferINS_6vectorI7Vector2NS_9allocatorIS2_EEEERNS3_IS5_EEE17__destruct_at_endB8ue170006EPS5_NS_17integral_constantIbLb0EEE, symObjAddr: 0x6BBC, symBinAddr: 0x100009DD4, symSize: 0x80 }
  - { offsetInCU: 0xECF0, offset: 0xECF0, size: 0x8, addend: 0x0, symName: __ZNSt3__19allocatorINS_6vectorI7Vector2NS0_IS2_EEEEE10deallocateB8ue170006EPS4_m, symObjAddr: 0x6C3C, symBinAddr: 0x100009E54, symSize: 0x44 }
  - { offsetInCU: 0xED30, offset: 0xED30, size: 0x8, addend: 0x0, symName: __ZNKSt3__114__split_bufferINS_6vectorI7Vector2NS_9allocatorIS2_EEEERNS3_IS5_EEE9__end_capB8ue170006Ev, symObjAddr: 0x6C80, symBinAddr: 0x100009E98, symSize: 0x28 }
  - { offsetInCU: 0xED54, offset: 0xED54, size: 0x8, addend: 0x0, symName: __ZNKSt3__117__compressed_pairIPNS_6vectorI7Vector2NS_9allocatorIS2_EEEERNS3_IS5_EEE5firstB8ue170006Ev, symObjAddr: 0x6CA8, symBinAddr: 0x100009EC0, symSize: 0x24 }
  - { offsetInCU: 0xED78, offset: 0xED78, size: 0x8, addend: 0x0, symName: __ZNSt3__112basic_stringIcNS_11char_traitsIcEENS_9allocatorIcEEE15__make_iteratorB8ue170006EPc, symObjAddr: 0x6CCC, symBinAddr: 0x100009EE4, symSize: 0x30 }
  - { offsetInCU: 0xEDAB, offset: 0xEDAB, size: 0x8, addend: 0x0, symName: __ZNSt3__112basic_stringIcNS_11char_traitsIcEENS_9allocatorIcEEE13__get_pointerB8ue170006Ev, symObjAddr: 0x6CFC, symBinAddr: 0x100009F14, symSize: 0x54 }
  - { offsetInCU: 0xEDD0, offset: 0xEDD0, size: 0x8, addend: 0x0, symName: __ZNSt3__111__wrap_iterIPcEC1B8ue170006ES1_, symObjAddr: 0x6D50, symBinAddr: 0x100009F68, symSize: 0x34 }
  - { offsetInCU: 0xEE07, offset: 0xEE07, size: 0x8, addend: 0x0, symName: __ZNSt3__111__wrap_iterIPcEC2B8ue170006ES1_, symObjAddr: 0x6D84, symBinAddr: 0x100009F9C, symSize: 0x20 }
  - { offsetInCU: 0xEE3D, offset: 0xEE3D, size: 0x8, addend: 0x0, symName: __ZNKSt3__112basic_stringIcNS_11char_traitsIcEENS_9allocatorIcEEE4sizeB8ue170006Ev, symObjAddr: 0x6DA4, symBinAddr: 0x100009FBC, symSize: 0x54 }
  - { offsetInCU: 0xEE61, offset: 0xEE61, size: 0x8, addend: 0x0, symName: __ZNKSt3__112basic_stringIcNS_11char_traitsIcEENS_9allocatorIcEEE15__get_long_sizeB8ue170006Ev, symObjAddr: 0x6DF8, symBinAddr: 0x10000A010, symSize: 0x28 }
  - { offsetInCU: 0xEE85, offset: 0xEE85, size: 0x8, addend: 0x0, symName: __ZNKSt3__112basic_stringIcNS_11char_traitsIcEENS_9allocatorIcEEE16__get_short_sizeB8ue170006Ev, symObjAddr: 0x6E20, symBinAddr: 0x10000A038, symSize: 0x34 }
  - { offsetInCU: 0xEEAA, offset: 0xEEAA, size: 0x8, addend: 0x0, symName: __ZNSt3__111char_traitsIcE6lengthB8ue170006EPKc, symObjAddr: 0x6E54, symBinAddr: 0x10000A06C, symSize: 0x34 }
  - { offsetInCU: 0xEECC, offset: 0xEECC, size: 0x8, addend: 0x0, symName: __ZNSt3__16vectorINS0_I7Vector2NS_9allocatorIS1_EEEENS2_IS4_EEE11__make_iterB8ue170006EPS4_, symObjAddr: 0x6EAC, symBinAddr: 0x10000A0C4, symSize: 0x30 }
  - { offsetInCU: 0xEF00, offset: 0xEF00, size: 0x8, addend: 0x0, symName: __ZNSt3__111__wrap_iterIPNS_6vectorI7Vector2NS_9allocatorIS2_EEEEEC1B8ue170006ES6_, symObjAddr: 0x6EDC, symBinAddr: 0x10000A0F4, symSize: 0x34 }
  - { offsetInCU: 0xEF37, offset: 0xEF37, size: 0x8, addend: 0x0, symName: __ZNSt3__111__wrap_iterIPNS_6vectorI7Vector2NS_9allocatorIS2_EEEEEC2B8ue170006ES6_, symObjAddr: 0x6F10, symBinAddr: 0x10000A128, symSize: 0x20 }
  - { offsetInCU: 0xEF6D, offset: 0xEF6D, size: 0x8, addend: 0x0, symName: __ZNKSt3__16vectorI7Vector2NS_9allocatorIS1_EEE17__annotate_shrinkB8ue170006Em, symObjAddr: 0x6F30, symBinAddr: 0x10000A148, symSize: 0xB4 }
  - { offsetInCU: 0xEFA1, offset: 0xEFA1, size: 0x8, addend: 0x0, symName: __ZNSt3__112basic_stringIcNS_11char_traitsIcEENS_9allocatorIcEEEC2B8ue170006Ev, symObjAddr: 0x6FE4, symBinAddr: 0x10000A1FC, symSize: 0x48 }
  - { offsetInCU: 0xEFCF, offset: 0xEFCF, size: 0x8, addend: 0x0, symName: __ZNSt3__117__compressed_pairINS_12basic_stringIcNS_11char_traitsIcEENS_9allocatorIcEEE5__repES5_EC1B8ue170006INS_18__default_init_tagESA_EEOT_OT0_, symObjAddr: 0x702C, symBinAddr: 0x10000A244, symSize: 0x3C }
  - { offsetInCU: 0xF025, offset: 0xF025, size: 0x8, addend: 0x0, symName: __ZNSt3__112basic_stringIcNS_11char_traitsIcEENS_9allocatorIcEEE14__default_initB8ue170006Ev, symObjAddr: 0x7068, symBinAddr: 0x10000A280, symSize: 0x40 }
  - { offsetInCU: 0xF04A, offset: 0xF04A, size: 0x8, addend: 0x0, symName: __ZNSt3__117__compressed_pairINS_12basic_stringIcNS_11char_traitsIcEENS_9allocatorIcEEE5__repES5_EC2B8ue170006INS_18__default_init_tagESA_EEOT_OT0_, symObjAddr: 0x70A8, symBinAddr: 0x10000A2C0, symSize: 0x3C }
  - { offsetInCU: 0xF0A1, offset: 0xF0A1, size: 0x8, addend: 0x0, symName: __ZNSt3__122__compressed_pair_elemINS_12basic_stringIcNS_11char_traitsIcEENS_9allocatorIcEEE5__repELi0ELb0EEC2B8ue170006ENS_18__default_init_tagE, symObjAddr: 0x70E4, symBinAddr: 0x10000A2FC, symSize: 0x14 }
  - { offsetInCU: 0xF0D5, offset: 0xF0D5, size: 0x8, addend: 0x0, symName: __ZNSt3__122__compressed_pair_elemINS_9allocatorIcEELi1ELb1EEC2B8ue170006ENS_18__default_init_tagE, symObjAddr: 0x70F8, symBinAddr: 0x10000A310, symSize: 0x2C }
  - { offsetInCU: 0xF109, offset: 0xF109, size: 0x8, addend: 0x0, symName: __ZNSt3__19allocatorIcEC2B8ue170006Ev, symObjAddr: 0x7124, symBinAddr: 0x10000A33C, symSize: 0x2C }
  - { offsetInCU: 0xF132, offset: 0xF132, size: 0x8, addend: 0x0, symName: __ZNSt3__116__non_trivial_ifILb1ENS_9allocatorIcEEEC2B8ue170006Ev, symObjAddr: 0x7150, symBinAddr: 0x10000A368, symSize: 0x14 }
  - { offsetInCU: 0xF15B, offset: 0xF15B, size: 0x8, addend: 0x0, symName: __ZNSt3__112basic_stringIcNS_11char_traitsIcEENS_9allocatorIcEEEC1B8ue170006EOS5_, symObjAddr: 0x7164, symBinAddr: 0x10000A37C, symSize: 0x34 }
  - { offsetInCU: 0xF193, offset: 0xF193, size: 0x8, addend: 0x0, symName: __ZNSt3__112basic_stringIcNS_11char_traitsIcEENS_9allocatorIcEEEC2B8ue170006EOS5_, symObjAddr: 0x7198, symBinAddr: 0x10000A3B0, symSize: 0x48 }
  - { offsetInCU: 0xF1CA, offset: 0xF1CA, size: 0x8, addend: 0x0, symName: __ZNKSt3__112basic_stringIcNS_11char_traitsIcEENS_9allocatorIcEEE4dataB8ue170006Ev, symObjAddr: 0x71E0, symBinAddr: 0x10000A3F8, symSize: 0x28 }
  - { offsetInCU: 0xF1EE, offset: 0xF1EE, size: 0x8, addend: 0x0, symName: __ZNKSt3__112basic_stringIcNS_11char_traitsIcEENS_9allocatorIcEEE13__get_pointerB8ue170006Ev, symObjAddr: 0x721C, symBinAddr: 0x10000A434, symSize: 0x54 }
  - { offsetInCU: 0xF212, offset: 0xF212, size: 0x8, addend: 0x0, symName: __ZNKSt3__112basic_stringIcNS_11char_traitsIcEENS_9allocatorIcEEE18__get_long_pointerB8ue170006Ev, symObjAddr: 0x7270, symBinAddr: 0x10000A488, symSize: 0x28 }
  - { offsetInCU: 0xF236, offset: 0xF236, size: 0x8, addend: 0x0, symName: __ZNKSt3__112basic_stringIcNS_11char_traitsIcEENS_9allocatorIcEEE19__get_short_pointerB8ue170006Ev, symObjAddr: 0x7298, symBinAddr: 0x10000A4B0, symSize: 0x28 }
  - { offsetInCU: 0xF25B, offset: 0xF25B, size: 0x8, addend: 0x0, symName: __ZNSt3__114pointer_traitsIPKcE10pointer_toB8ue170006ERS1_, symObjAddr: 0x72C0, symBinAddr: 0x10000A4D8, symSize: 0x14 }
  - { offsetInCU: 0x3F, offset: 0xF3D4, size: 0x8, addend: 0x0, symName: _sinPoints, symObjAddr: 0x1B670, symBinAddr: 0x100010010, symSize: 0x0 }
  - { offsetInCU: 0x42ED, offset: 0x13682, size: 0x8, addend: 0x0, symName: _sinPointsToDraw, symObjAddr: 0x1B688, symBinAddr: 0x100010028, symSize: 0x0 }
  - { offsetInCU: 0x4303, offset: 0x13698, size: 0x8, addend: 0x0, symName: _cosPoints, symObjAddr: 0x1B6A0, symBinAddr: 0x100010040, symSize: 0x0 }
  - { offsetInCU: 0x4319, offset: 0x136AE, size: 0x8, addend: 0x0, symName: _cosPointsToDraw, symObjAddr: 0x1B6B8, symBinAddr: 0x100010058, symSize: 0x0 }
  - { offsetInCU: 0x432F, offset: 0x136C4, size: 0x8, addend: 0x0, symName: _tanPoints, symObjAddr: 0x1B6D0, symBinAddr: 0x100010070, symSize: 0x0 }
  - { offsetInCU: 0x4345, offset: 0x136DA, size: 0x8, addend: 0x0, symName: _tanPointsToDraw, symObjAddr: 0x1B6E8, symBinAddr: 0x100010088, symSize: 0x0 }
  - { offsetInCU: 0x435B, offset: 0x136F0, size: 0x8, addend: 0x0, symName: _absPoints, symObjAddr: 0x1B700, symBinAddr: 0x1000100A0, symSize: 0x0 }
  - { offsetInCU: 0x4371, offset: 0x13706, size: 0x8, addend: 0x0, symName: _absPointsToDraw, symObjAddr: 0x1B718, symBinAddr: 0x1000100B8, symSize: 0x0 }
  - { offsetInCU: 0x4387, offset: 0x1371C, size: 0x8, addend: 0x0, symName: _allPoints, symObjAddr: 0x1B730, symBinAddr: 0x1000100D0, symSize: 0x0 }
  - { offsetInCU: 0x447E, offset: 0x13813, size: 0x8, addend: 0x0, symName: _allPointsToDraw, symObjAddr: 0x1B748, symBinAddr: 0x1000100E8, symSize: 0x0 }
  - { offsetInCU: 0x4494, offset: 0x13829, size: 0x8, addend: 0x0, symName: _sinIsCalled, symObjAddr: 0x1B760, symBinAddr: 0x100010100, symSize: 0x0 }
  - { offsetInCU: 0x44AA, offset: 0x1383F, size: 0x8, addend: 0x0, symName: _cosIsCalled, symObjAddr: 0x1B761, symBinAddr: 0x100010101, symSize: 0x0 }
  - { offsetInCU: 0x44C0, offset: 0x13855, size: 0x8, addend: 0x0, symName: _tanIsCalled, symObjAddr: 0x1B762, symBinAddr: 0x100010102, symSize: 0x0 }
  - { offsetInCU: 0x44D6, offset: 0x1386B, size: 0x8, addend: 0x0, symName: _absIsCalled, symObjAddr: 0x1B763, symBinAddr: 0x100010103, symSize: 0x0 }
  - { offsetInCU: 0x44EC, offset: 0x13881, size: 0x8, addend: 0x0, symName: _pointClearHelper, symObjAddr: 0x1B768, symBinAddr: 0x100010108, symSize: 0x0 }
  - { offsetInCU: 0x4502, offset: 0x13897, size: 0x8, addend: 0x0, symName: _sinInfo, symObjAddr: 0x1B780, symBinAddr: 0x100010120, symSize: 0x0 }
  - { offsetInCU: 0x4626, offset: 0x139BB, size: 0x8, addend: 0x0, symName: _cosInfo, symObjAddr: 0x1B7A0, symBinAddr: 0x100010140, symSize: 0x0 }
  - { offsetInCU: 0x463C, offset: 0x139D1, size: 0x8, addend: 0x0, symName: _tanInfo, symObjAddr: 0x1B7C0, symBinAddr: 0x100010160, symSize: 0x0 }
  - { offsetInCU: 0x4652, offset: 0x139E7, size: 0x8, addend: 0x0, symName: _absInfo, symObjAddr: 0x1B7E0, symBinAddr: 0x100010180, symSize: 0x0 }
  - { offsetInCU: 0x4668, offset: 0x139FD, size: 0x8, addend: 0x0, symName: _animationIndex, symObjAddr: 0x1B800, symBinAddr: 0x1000101A0, symSize: 0x0 }
  - { offsetInCU: 0x6428, offset: 0x157BD, size: 0x8, addend: 0x0, symName: __ZNSt3__16vectorI7Vector2NS_9allocatorIS1_EEEC1B8ue170006Ev, symObjAddr: 0x0, symBinAddr: 0x10000A4EC, symSize: 0x2C }
  - { offsetInCU: 0x6451, offset: 0x157E6, size: 0x8, addend: 0x0, symName: __ZNSt3__16vectorINS0_I7Vector2NS_9allocatorIS1_EEEENS2_IS4_EEEC1B8ue170006Ev, symObjAddr: 0x58, symBinAddr: 0x10000A518, symSize: 0x2C }
  - { offsetInCU: 0x647A, offset: 0x1580F, size: 0x8, addend: 0x0, symName: __ZNSt3__16vectorINS0_I7Vector2NS_9allocatorIS1_EEEENS2_IS4_EEED1B8ue170006Ev, symObjAddr: 0x84, symBinAddr: 0x10000A544, symSize: 0x2C }
  - { offsetInCU: 0x64A8, offset: 0x1583D, size: 0x8, addend: 0x0, symName: __ZN8WaveInfoC1Ev, symObjAddr: 0xB0, symBinAddr: 0x10000A570, symSize: 0x2C }
  - { offsetInCU: 0x64D3, offset: 0x15868, size: 0x8, addend: 0x0, symName: __ZN8WaveInfoC2Ev, symObjAddr: 0x108, symBinAddr: 0x10000A59C, symSize: 0x30 }
  - { offsetInCU: 0x6503, offset: 0x15898, size: 0x8, addend: 0x0, symName: __ZNSt3__16vectorI7Vector2NS_9allocatorIS1_EEEC2B8ue170006Ev, symObjAddr: 0x358, symBinAddr: 0x10000A5CC, symSize: 0x4C }
  - { offsetInCU: 0x6531, offset: 0x158C6, size: 0x8, addend: 0x0, symName: __ZNSt3__117__compressed_pairIP7Vector2NS_9allocatorIS1_EEEC1B8ue170006IDnNS_18__default_init_tagEEEOT_OT0_, symObjAddr: 0x3A4, symBinAddr: 0x10000A618, symSize: 0x3C }
  - { offsetInCU: 0x6588, offset: 0x1591D, size: 0x8, addend: 0x0, symName: __ZNSt3__117__compressed_pairIP7Vector2NS_9allocatorIS1_EEEC2B8ue170006IDnNS_18__default_init_tagEEEOT_OT0_, symObjAddr: 0x3E0, symBinAddr: 0x10000A654, symSize: 0x40 }
  - { offsetInCU: 0x65DF, offset: 0x15974, size: 0x8, addend: 0x0, symName: __ZNSt3__122__compressed_pair_elemINS_9allocatorI7Vector2EELi1ELb1EEC2B8ue170006ENS_18__default_init_tagE, symObjAddr: 0x43C, symBinAddr: 0x10000A694, symSize: 0x2C }
  - { offsetInCU: 0x6613, offset: 0x159A8, size: 0x8, addend: 0x0, symName: __ZNSt3__19allocatorI7Vector2EC2B8ue170006Ev, symObjAddr: 0x468, symBinAddr: 0x10000A6C0, symSize: 0x2C }
  - { offsetInCU: 0x663C, offset: 0x159D1, size: 0x8, addend: 0x0, symName: __ZNSt3__116__non_trivial_ifILb1ENS_9allocatorI7Vector2EEEC2B8ue170006Ev, symObjAddr: 0x494, symBinAddr: 0x10000A6EC, symSize: 0x14 }
  - { offsetInCU: 0x6665, offset: 0x159FA, size: 0x8, addend: 0x0, symName: __ZNSt3__16vectorINS0_I7Vector2NS_9allocatorIS1_EEEENS2_IS4_EEEC2B8ue170006Ev, symObjAddr: 0xA9C, symBinAddr: 0x10000A700, symSize: 0x4C }
  - { offsetInCU: 0x668E, offset: 0x15A23, size: 0x8, addend: 0x0, symName: __ZNSt3__117__compressed_pairIPNS_6vectorI7Vector2NS_9allocatorIS2_EEEENS3_IS5_EEEC1B8ue170006IDnNS_18__default_init_tagEEEOT_OT0_, symObjAddr: 0xAE8, symBinAddr: 0x10000A74C, symSize: 0x3C }
  - { offsetInCU: 0x66E5, offset: 0x15A7A, size: 0x8, addend: 0x0, symName: __ZNSt3__117__compressed_pairIPNS_6vectorI7Vector2NS_9allocatorIS2_EEEENS3_IS5_EEEC2B8ue170006IDnNS_18__default_init_tagEEEOT_OT0_, symObjAddr: 0xB24, symBinAddr: 0x10000A788, symSize: 0x40 }
  - { offsetInCU: 0x673C, offset: 0x15AD1, size: 0x8, addend: 0x0, symName: __ZNSt3__122__compressed_pair_elemINS_9allocatorINS_6vectorI7Vector2NS1_IS3_EEEEEELi1ELb1EEC2B8ue170006ENS_18__default_init_tagE, symObjAddr: 0xB80, symBinAddr: 0x10000A7C8, symSize: 0x2C }
  - { offsetInCU: 0x6770, offset: 0x15B05, size: 0x8, addend: 0x0, symName: __ZNSt3__19allocatorINS_6vectorI7Vector2NS0_IS2_EEEEEC2B8ue170006Ev, symObjAddr: 0xBAC, symBinAddr: 0x10000A7F4, symSize: 0x2C }
  - { offsetInCU: 0x6799, offset: 0x15B2E, size: 0x8, addend: 0x0, symName: __ZNSt3__116__non_trivial_ifILb1ENS_9allocatorINS_6vectorI7Vector2NS1_IS3_EEEEEEEC2B8ue170006Ev, symObjAddr: 0xBD8, symBinAddr: 0x10000A820, symSize: 0x14 }
  - { offsetInCU: 0x67C2, offset: 0x15B57, size: 0x8, addend: 0x0, symName: __ZNSt3__16vectorINS0_I7Vector2NS_9allocatorIS1_EEEENS2_IS4_EEED2B8ue170006Ev, symObjAddr: 0xBEC, symBinAddr: 0x10000A834, symSize: 0x44 }
  - { offsetInCU: 0x67EB, offset: 0x15B80, size: 0x8, addend: 0x0, symName: __ZNSt3__16vectorINS0_I7Vector2NS_9allocatorIS1_EEEENS2_IS4_EEE16__destroy_vectorC1B8ue170006ERS6_, symObjAddr: 0xC30, symBinAddr: 0x10000A878, symSize: 0x34 }
  - { offsetInCU: 0x6823, offset: 0x15BB8, size: 0x8, addend: 0x0, symName: __ZNSt3__16vectorINS0_I7Vector2NS_9allocatorIS1_EEEENS2_IS4_EEE16__destroy_vectorclB8ue170006Ev, symObjAddr: 0xC64, symBinAddr: 0x10000A8AC, symSize: 0x90 }
  - { offsetInCU: 0x6847, offset: 0x15BDC, size: 0x8, addend: 0x0, symName: __ZNSt3__16vectorINS0_I7Vector2NS_9allocatorIS1_EEEENS2_IS4_EEE16__destroy_vectorC2B8ue170006ERS6_, symObjAddr: 0xCF4, symBinAddr: 0x10000A93C, symSize: 0x20 }
  - { offsetInCU: 0x687F, offset: 0x15C14, size: 0x8, addend: 0x0, symName: __ZNSt3__16vectorINS0_I7Vector2NS_9allocatorIS1_EEEENS2_IS4_EEE7__clearB8ue170006Ev, symObjAddr: 0xD14, symBinAddr: 0x10000A95C, symSize: 0x28 }
  - { offsetInCU: 0x68A3, offset: 0x15C38, size: 0x8, addend: 0x0, symName: __ZNSt3__16vectorINS0_I7Vector2NS_9allocatorIS1_EEEENS2_IS4_EEE22__base_destruct_at_endB8ue170006EPS4_, symObjAddr: 0xEAC, symBinAddr: 0x10000A984, symSize: 0x8C }
  - { offsetInCU: 0x26, offset: 0x15CC3, size: 0x8, addend: 0x0, symName: _main, symObjAddr: 0x0, symBinAddr: 0x10000AE1C, symSize: 0x52C }
  - { offsetInCU: 0x40, offset: 0x15CDD, size: 0x8, addend: 0x0, symName: _screenWidth, symObjAddr: 0x794, symBinAddr: 0x100010000, symSize: 0x0 }
  - { offsetInCU: 0x5D, offset: 0x15CFA, size: 0x8, addend: 0x0, symName: _screenHeight, symObjAddr: 0x798, symBinAddr: 0x100010004, symSize: 0x0 }
  - { offsetInCU: 0x73, offset: 0x15D10, size: 0x8, addend: 0x0, symName: _animatingFlag, symObjAddr: 0x79C, symBinAddr: 0x100010008, symSize: 0x0 }
  - { offsetInCU: 0x470A, offset: 0x1A3A7, size: 0x8, addend: 0x0, symName: _main, symObjAddr: 0x0, symBinAddr: 0x10000AE1C, symSize: 0x52C }
  - { offsetInCU: 0x485B, offset: 0x1A4F8, size: 0x8, addend: 0x0, symName: __ZNSt3__112basic_stringIcNS_11char_traitsIcEENS_9allocatorIcEEEC1B8ue170006ILi0EEEPKc, symObjAddr: 0x52C, symBinAddr: 0x10000B348, symSize: 0x34 }
  - { offsetInCU: 0x4899, offset: 0x1A536, size: 0x8, addend: 0x0, symName: __ZNSt3__112basic_stringIcNS_11char_traitsIcEENS_9allocatorIcEEEC2B8ue170006ILi0EEEPKc, symObjAddr: 0x560, symBinAddr: 0x10000B37C, symSize: 0x58 }
...
